EXPORTS
    _Z9stringtokISt4listIPSsSaIS1_EEEvRT_RKSsPKc @1
    _ZN10str_streamC1Ev @2
    _ZN10str_streamD1Ev @3
    _ZN11xlslib_core10CDimensionC1ERNS_12CDataStorageEjjjj @4
    _ZN11xlslib_core10CDimensionC2ERNS_12CDataStorageEjjjj @5
    _ZN11xlslib_core10CDimensionD0Ev @6
    _ZN11xlslib_core10CDimensionD1Ev @7
    _ZN11xlslib_core10CDimensionD2Ev @8
    _ZN11xlslib_core10CExtFormat11SetXFParentEt @9
    _ZN11xlslib_core10CExtFormat12GetFontIndexEv @10
    _ZN11xlslib_core10CExtFormat12SetFontIndexEt @11
    _ZN11xlslib_core10CExtFormat12SetVertAlignEh @12
    _ZN11xlslib_core10CExtFormat13SetHorizAlignEh @13
    _ZN11xlslib_core10CExtFormat14GetFormatIndexEv @14
    _ZN11xlslib_core10CExtFormat14SetFillPatternEh @15
    _ZN11xlslib_core10CExtFormat14SetFormatIndexEt @16
    _ZN11xlslib_core10CExtFormat15SetBGColorIndexEt @17
    _ZN11xlslib_core10CExtFormat15SetFGColorIndexEt @18
    _ZN11xlslib_core10CExtFormat17SetTxtOrientationEh @19
    _ZN11xlslib_core10CExtFormat6IsCellEv @20
    _ZN11xlslib_core10CExtFormat7SetWrapEb @21
    _ZN11xlslib_core10CExtFormat8SetFlagsEh @22
    _ZN11xlslib_core10CExtFormat9InitDummyEb @23
    _ZN11xlslib_core10CExtFormat9SetBorderENS_13border_side_tEtt @24
    _ZN11xlslib_core10CExtFormat9SetHiddenEb @25
    _ZN11xlslib_core10CExtFormat9SetIndentEh @26
    _ZN11xlslib_core10CExtFormat9SetLockedEb @27
    _ZN11xlslib_core10CExtFormatC1ERNS_12CDataStorageEPKNS_4xf_tE @28
    _ZN11xlslib_core10CExtFormatC2ERNS_12CDataStorageEPKNS_4xf_tE @29
    _ZN11xlslib_core10CExtFormatD0Ev @30
    _ZN11xlslib_core10CExtFormatD1Ev @31
    _ZN11xlslib_core10CExtFormatD2Ev @32
    _ZN11xlslib_core10CUnitStore10MakeStickyEv @33
    _ZN11xlslib_core10CUnitStore11SetDataSizeEj @34
    _ZN11xlslib_core10CUnitStore13InitWithValueEhj @35
    _ZN11xlslib_core10CUnitStore4InitEPKhjj @36
    _ZN11xlslib_core10CUnitStore5ResetEv @37
    _ZN11xlslib_core10CUnitStore6ResizeEj @38
    _ZN11xlslib_core10CUnitStore7PrepareEj @39
    _ZN11xlslib_core10CUnitStore9GetBufferEv @40
    _ZN11xlslib_core10CUnitStoreC1ERKS0_ @41
    _ZN11xlslib_core10CUnitStoreC1Ev @42
    _ZN11xlslib_core10CUnitStoreC2ERKS0_ @43
    _ZN11xlslib_core10CUnitStoreC2Ev @44
    _ZN11xlslib_core10CUnitStoreD1Ev @45
    _ZN11xlslib_core10CUnitStoreD2Ev @46
    _ZN11xlslib_core10hpsfValuesE @47 DATA
    _ZN11xlslib_core10hpsf_doc_t11unix2mstimeEl @48
    _ZN11xlslib_core10hpsf_doc_t6insertEPNS_8HPSFitemE @49
    _ZN11xlslib_core10hpsf_doc_t7addItemEtRKSs @50
    _ZN11xlslib_core10hpsf_doc_t7addItemEtj @51
    _ZN11xlslib_core10hpsf_doc_t7addItemEtt @52
    _ZN11xlslib_core10hpsf_doc_t7addItemEty @53
    _ZN11xlslib_core10hpsf_doc_tC1ENS_10_docType_tE @54
    _ZN11xlslib_core10hpsf_doc_tC2ENS_10_docType_tE @55
    _ZN11xlslib_core10hpsf_doc_tD0Ev @56
    _ZN11xlslib_core10hpsf_doc_tD1Ev @57
    _ZN11xlslib_core10hpsf_doc_tD2Ev @58
    _ZN11xlslib_core11rowheight_t12GetRowHeightEv @59
    _ZN11xlslib_core11rowheight_t9GetRowNumEv @60
    _ZN11xlslib_core11rowheight_tC1EjtPNS_4xf_tE @61
    _ZN11xlslib_core11rowheight_tC1Ev @62
    _ZN11xlslib_core11rowheight_tC2EjtPNS_4xf_tE @63
    _ZN11xlslib_core11rowheight_tC2Ev @64
    _ZN11xlslib_core11rowheight_tD0Ev @65
    _ZN11xlslib_core11rowheight_tD1Ev @66
    _ZN11xlslib_core11rowheight_tD2Ev @67
    _ZN11xlslib_core12CBiffSectionC2Ev @68
    _ZN11xlslib_core12CBiffSectionD0Ev @69
    _ZN11xlslib_core12CBiffSectionD1Ev @70
    _ZN11xlslib_core12CBiffSectionD2Ev @71
    _ZN11xlslib_core12CDataStorage10MakeCBlankERKNS_7blank_tE @72
    _ZN11xlslib_core12CDataStorage10MakeCIndexEjj @73
    _ZN11xlslib_core12CDataStorage10MakeCLabelERKNS_7label_tE @74
    _ZN11xlslib_core12CDataStorage10MakeCStyleEPKNS_7style_tE @75
    _ZN11xlslib_core12CDataStorage11MakeCBSheetEPKNS_12boundsheet_tE @76
    _ZN11xlslib_core12CDataStorage11MakeCDBCellEj @77
    _ZN11xlslib_core12CDataStorage11MakeCFormatEPKNS_8format_tE @78
    _ZN11xlslib_core12CDataStorage11MakeCNumberERKNS_8number_tE @79
    _ZN11xlslib_core12CDataStorage11MakeCRecordEv @80
    _ZN11xlslib_core12CDataStorage12MakeCBooleanERKNS_9boolean_tE @81
    _ZN11xlslib_core12CDataStorage12MakeCColInfoEPKNS_9colinfo_tE @82
    _ZN11xlslib_core12CDataStorage12MakeCFormulaERKNS_9formula_tE @83
    _ZN11xlslib_core12CDataStorage12MakeCHPSFdocERKNS_10hpsf_doc_tE @84
    _ZN11xlslib_core12CDataStorage12MakeCPaletteEPKNS_13color_entry_tE @85
    _ZN11xlslib_core12CDataStorage12MakeCWindow1ERKNS_7window1E @86
    _ZN11xlslib_core12CDataStorage12MakeCWindow2Eb @87
    _ZN11xlslib_core12CDataStorage12RequestIndexEj @88
    _ZN11xlslib_core12CDataStorage13MakeCCodePageEt @89
    _ZN11xlslib_core12CDataStorage13MakeCContinueEPNS_5CUnitEPKhj @90
    _ZN11xlslib_core12CDataStorage13MakeCDateModeEv @91
    _ZN11xlslib_core12CDataStorage14MakeCDimensionEjjjj @92
    _ZN11xlslib_core12CDataStorage14MakeCExtFormatEPKNS_4xf_tE @93
    _ZN11xlslib_core12CDataStorage16MakeCMergedCellsEv @94
    _ZN11xlslib_core12CDataStorage20FlushLowerLevelUnitsEPKNS_5CUnitE @95
    _ZN11xlslib_core12CDataStorage3endEv @96
    _ZN11xlslib_core12CDataStorage4ClipEPNS_5CUnitE @97
    _ZN11xlslib_core12CDataStorage4PushEPNS_5CUnitE @98
    _ZN11xlslib_core12CDataStorage5beginEv @99
    _ZN11xlslib_core12CDataStorage7FlushEmEt @100
    _ZN11xlslib_core12CDataStorage7MakeSSTERKSt6vectorIPKNS_7label_tESaIS4_EE @101
    _ZN11xlslib_core12CDataStorage8MakeCBofEt @102
    _ZN11xlslib_core12CDataStorage8MakeCEofEv @103
    _ZN11xlslib_core12CDataStorage8MakeCErrERKNS_5err_tE @104
    _ZN11xlslib_core12CDataStorage8MakeCRowEjjjtPKNS_4xf_tE @105
    _ZN11xlslib_core12CDataStorage9MakeCFontEPKNS_6font_tE @106
    _ZN11xlslib_core12CDataStorage9MakeCNoteERKNS_6note_tE @107
    _ZN11xlslib_core12CDataStorage9MakeCUnitEv @108
    _ZN11xlslib_core12CDataStorageC1Ej @109
    _ZN11xlslib_core12CDataStorageC1Ev @110
    _ZN11xlslib_core12CDataStorageC2Ej @111
    _ZN11xlslib_core12CDataStorageC2Ev @112
    _ZN11xlslib_core12CDataStorageD0Ev @113
    _ZN11xlslib_core12CDataStorageD1Ev @114
    _ZN11xlslib_core12CDataStorageD2Ev @115
    _ZN11xlslib_core12CDataStorageixEi @116
    _ZN11xlslib_core12CDataStoragepLEPNS_5CUnitE @117
    _ZN11xlslib_core12CMergedCells12SetNumRangesEj @118
    _ZN11xlslib_core12CMergedCells8AddRangeEPNS_7range_tE @119
    _ZN11xlslib_core12CMergedCellsC1ERNS_12CDataStorageE @120
    _ZN11xlslib_core12CMergedCellsC2ERNS_12CDataStorageE @121
    _ZN11xlslib_core12CMergedCellsD0Ev @122
    _ZN11xlslib_core12CMergedCellsD1Ev @123
    _ZN11xlslib_core12CMergedCellsD2Ev @124
    _ZN11xlslib_core12CSummaryInfo8DumpDataERNS_12CDataStorageE @125
    _ZN11xlslib_core12CSummaryInfo8propertyENS_10property_tERKSs @126
    _ZN11xlslib_core12CSummaryInfoC1Ev @127
    _ZN11xlslib_core12CSummaryInfoC2Ev @128
    _ZN11xlslib_core12CSummaryInfoD0Ev @129
    _ZN11xlslib_core12CSummaryInfoD1Ev @130
    _ZN11xlslib_core12CSummaryInfoD2Ev @131
    _ZN11xlslib_core12boundsheet_t12SetSheetDataEPNS_7CBSheetE @132
    _ZN11xlslib_core12boundsheet_t13SetAttributesEt @133
    _ZN11xlslib_core12boundsheet_t22SetSheetStreamPositionEj @134
    _ZN11xlslib_core12boundsheet_tC1ERKS0_ @135
    _ZN11xlslib_core12boundsheet_tC1ERNS_14CGlobalRecordsE @136
    _ZN11xlslib_core12boundsheet_tC1ERNS_14CGlobalRecordsERKSbItSt11char_traitsItESaItEEtj @137
    _ZN11xlslib_core12boundsheet_tC2ERKS0_ @138
    _ZN11xlslib_core12boundsheet_tC2ERNS_14CGlobalRecordsE @139
    _ZN11xlslib_core12boundsheet_tC2ERNS_14CGlobalRecordsERKSbItSt11char_traitsItESaItEEtj @140
    _ZN11xlslib_core12boundsheet_tD0Ev @141
    _ZN11xlslib_core12boundsheet_tD1Ev @142
    _ZN11xlslib_core12boundsheet_tD2Ev @143
    _ZN11xlslib_core12boundsheet_taSERKS0_ @144
    _ZN11xlslib_core13summaryFormatE @145 DATA
    _ZN11xlslib_core14CGlobalRecords10AddXFormatEPNS_4xf_tE @146
    _ZN11xlslib_core14CGlobalRecords10GetWindow1Ev @147
    _ZN11xlslib_core14CGlobalRecords10char2str16ERKSsRSbItSt11char_traitsItESaItEE @148
    _ZN11xlslib_core14CGlobalRecords10wide2str16ERKSbIwSt11char_traitsIwESaIwEERSbItS1_ItESaItEE @149
    _ZN11xlslib_core14CGlobalRecords11AddLabelSSTERKNS_7label_tE @150
    _ZN11xlslib_core14CGlobalRecords12str16toasciiERKSbItSt11char_traitsItESaItEERSs @151
    _ZN11xlslib_core14CGlobalRecords14DeleteLabelSSTERKNS_7label_tE @152
    _ZN11xlslib_core14CGlobalRecords15GetBoundSheetAtEj @153
    _ZN11xlslib_core14CGlobalRecords16AddBoundingSheetEPNS_12boundsheet_tE @154
    _ZN11xlslib_core14CGlobalRecords16AddBoundingSheetEjtRSbItSt11char_traitsItESaItEE @155
    _ZN11xlslib_core14CGlobalRecords16GetEndBoundSheetEv @156
    _ZN11xlslib_core14CGlobalRecords16GetLabelSSTIndexERKNS_7label_tE @157
    _ZN11xlslib_core14CGlobalRecords17GetBoundingSheetsERN9__gnu_cxx17__normal_iteratorIPPNS_12boundsheet_tESt6vectorIS4_SaIS4_EEEE @158
    _ZN11xlslib_core14CGlobalRecords18GetFirstBoundSheetEv @159
    _ZN11xlslib_core14CGlobalRecords33EstimateNumBiffUnitsNeeded4HeaderEv @160
    _ZN11xlslib_core14CGlobalRecords7AddFontEPNS_6font_tE @161
    _ZN11xlslib_core14CGlobalRecords7IsASCIIERKSbItSt11char_traitsItESaItEE @162
    _ZN11xlslib_core14CGlobalRecords7IsASCIIERKSs @163
    _ZN11xlslib_core14CGlobalRecords8DumpDataERNS_12CDataStorageE @164
    _ZN11xlslib_core14CGlobalRecords8SetColorEhhhh @165
    _ZN11xlslib_core14CGlobalRecords9AddFormatEPNS_8format_tE @166
    _ZN11xlslib_core14CGlobalRecordsC1Ev @167
    _ZN11xlslib_core14CGlobalRecordsC2Ev @168
    _ZN11xlslib_core14CGlobalRecordsD0Ev @169
    _ZN11xlslib_core14CGlobalRecordsD1Ev @170
    _ZN11xlslib_core14CGlobalRecordsD2Ev @171
    _ZN11xlslib_core14COleFileSystem10SearchNodeEPNS_8COlePropERSt4listIPSsSaIS4_EERN9__gnu_cxx17__normal_iteratorIPS2_St6vectorIS2_SaIS2_EEEE @172
    _ZN11xlslib_core14COleFileSystem11GetAllNodesERSt6vectorIPNS_8COlePropESaIS3_EE @173
    _ZN11xlslib_core14COleFileSystem12AddDirectoryERKSs @174
    _ZN11xlslib_core14COleFileSystem12GetRootEntryEv @175
    _ZN11xlslib_core14COleFileSystem15GetAllNodesListERSt6vectorIPNS_8COlePropESaIS3_EES3_ @176
    _ZN11xlslib_core14COleFileSystem15GetNumDataFilesEv @177
    _ZN11xlslib_core14COleFileSystem16GetTotalDataSizeEv @178
    _ZN11xlslib_core14COleFileSystem7AddFileERKSsPNS_12CDataStorageE @179
    _ZN11xlslib_core14COleFileSystem7AddNodeEPNS_8COlePropERSt4listIPSsSaIS4_EE @180
    _ZN11xlslib_core14COleFileSystem7GetNodeERKSsRN9__gnu_cxx17__normal_iteratorIPPNS_8COlePropESt6vectorIS6_SaIS6_EEEE @181
    _ZN11xlslib_core14COleFileSystem8SortListERSt6vectorIPNS_8COlePropESaIS3_EE @182
    _ZN11xlslib_core14COleFileSystemC1Ev @183
    _ZN11xlslib_core14COleFileSystemC2Ev @184
    _ZN11xlslib_core14COleFileSystemD0Ev @185
    _ZN11xlslib_core14COleFileSystemD1Ev @186
    _ZN11xlslib_core14COleFileSystemD2Ev @187
    _ZN11xlslib_core14rowblocksize_t5resetEv @188
    _ZN11xlslib_core14rowblocksize_tC1Ev @189
    _ZN11xlslib_core14rowblocksize_tD1Ev @190
    _ZN11xlslib_core15CDocSummaryInfo8DumpDataERNS_12CDataStorageE @191
    _ZN11xlslib_core15CDocSummaryInfo8propertyENS_10property_tERKSs @192
    _ZN11xlslib_core15CDocSummaryInfoC1Ev @193
    _ZN11xlslib_core15CDocSummaryInfoC2Ev @194
    _ZN11xlslib_core15CDocSummaryInfoD0Ev @195
    _ZN11xlslib_core15CDocSummaryInfoD1Ev @196
    _ZN11xlslib_core15CDocSummaryInfoD2Ev @197
    _ZN11xlslib_core15terminal_node_tC1ERNS_14CGlobalRecordsE @198
    _ZN11xlslib_core15terminal_node_tC2ERNS_14CGlobalRecordsE @199
    _ZN11xlslib_core15terminal_node_tD0Ev @200
    _ZN11xlslib_core15terminal_node_tD1Ev @201
    _ZN11xlslib_core15terminal_node_tD2Ev @202
    _ZN11xlslib_core15unary_op_node_tC1ERNS_14CGlobalRecordsENS_20expr_operator_code_tEPNS_17expression_node_tE @203
    _ZN11xlslib_core15unary_op_node_tC2ERNS_14CGlobalRecordsENS_20expr_operator_code_tEPNS_17expression_node_tE @204
    _ZN11xlslib_core15unary_op_node_tD0Ev @205
    _ZN11xlslib_core15unary_op_node_tD1Ev @206
    _ZN11xlslib_core15unary_op_node_tD2Ev @207
    _ZN11xlslib_core16binary_op_node_tC1ERNS_14CGlobalRecordsENS_20expr_operator_code_tEPNS_17expression_node_tES5_ @208
    _ZN11xlslib_core16binary_op_node_tC2ERNS_14CGlobalRecordsENS_20expr_operator_code_tEPNS_17expression_node_tES5_ @209
    _ZN11xlslib_core16binary_op_node_tD0Ev @210
    _ZN11xlslib_core16binary_op_node_tD1Ev @211
    _ZN11xlslib_core16binary_op_node_tD2Ev @212
    _ZN11xlslib_core16docSummaryFormatE @213 DATA
    _ZN11xlslib_core16property2summaryE @214 DATA
    _ZN11xlslib_core17cell_deref_node_tC1ERNS_14CGlobalRecordsERKNS_6cell_tENS_16cell_addr_mode_tENS_15cell_op_class_tE @215
    _ZN11xlslib_core17cell_deref_node_tC1ERNS_14CGlobalRecordsERKNS_6cell_tEPKNS_9worksheetENS_16cell_addr_mode_tENS_15cell_op_class_tE @216
    _ZN11xlslib_core17cell_deref_node_tC2ERNS_14CGlobalRecordsERKNS_6cell_tENS_16cell_addr_mode_tENS_15cell_op_class_tE @217
    _ZN11xlslib_core17cell_deref_node_tC2ERNS_14CGlobalRecordsERKNS_6cell_tEPKNS_9worksheetENS_16cell_addr_mode_tENS_15cell_op_class_tE @218
    _ZN11xlslib_core17cell_deref_node_tD0Ev @219
    _ZN11xlslib_core17cell_deref_node_tD1Ev @220
    _ZN11xlslib_core17cell_deref_node_tD2Ev @221
    _ZN11xlslib_core17expression_node_t10DestroyASTEv @222
    _ZN11xlslib_core17expression_node_tC1ERNS_14CGlobalRecordsE @223
    _ZN11xlslib_core17expression_node_tC2ERNS_14CGlobalRecordsE @224
    _ZN11xlslib_core17expression_node_tD0Ev @225
    _ZN11xlslib_core17expression_node_tD1Ev @226
    _ZN11xlslib_core17expression_node_tD2Ev @227
    _ZN11xlslib_core17n_ary_func_node_t7PushArgEPNS_17expression_node_tE @228
    _ZN11xlslib_core17n_ary_func_node_tC1ERNS_14CGlobalRecordsENS_20expr_function_code_tEjPPNS_17expression_node_tE @229
    _ZN11xlslib_core17n_ary_func_node_tC2ERNS_14CGlobalRecordsENS_20expr_function_code_tEjPPNS_17expression_node_tE @230
    _ZN11xlslib_core17n_ary_func_node_tD0Ev @231
    _ZN11xlslib_core17n_ary_func_node_tD1Ev @232
    _ZN11xlslib_core17n_ary_func_node_tD2Ev @233
    _ZN11xlslib_core17text_value_node_tC1ERNS_14CGlobalRecordsERKSbItSt11char_traitsItESaItEE @234
    _ZN11xlslib_core17text_value_node_tC1ERNS_14CGlobalRecordsERKSbIwSt11char_traitsIwESaIwEE @235
    _ZN11xlslib_core17text_value_node_tC1ERNS_14CGlobalRecordsERKSs @236
    _ZN11xlslib_core17text_value_node_tC2ERNS_14CGlobalRecordsERKSbItSt11char_traitsItESaItEE @237
    _ZN11xlslib_core17text_value_node_tC2ERNS_14CGlobalRecordsERKSbIwSt11char_traitsIwESaIwEE @238
    _ZN11xlslib_core17text_value_node_tC2ERNS_14CGlobalRecordsERKSs @239
    _ZN11xlslib_core17text_value_node_tD0Ev @240
    _ZN11xlslib_core17text_value_node_tD1Ev @241
    _ZN11xlslib_core17text_value_node_tD2Ev @242
    _ZN11xlslib_core17text_value_node_taSERKS0_ @243
    _ZN11xlslib_core17unary_func_node_tC1ERNS_14CGlobalRecordsENS_20expr_function_code_tEPNS_17expression_node_tE @244
    _ZN11xlslib_core17unary_func_node_tC2ERNS_14CGlobalRecordsENS_20expr_function_code_tEPNS_17expression_node_tE @245
    _ZN11xlslib_core17unary_func_node_tD0Ev @246
    _ZN11xlslib_core17unary_func_node_tD1Ev @247
    _ZN11xlslib_core17unary_func_node_tD2Ev @248
    _ZN11xlslib_core17z_ary_func_node_tC1ERNS_14CGlobalRecordsENS_20expr_function_code_tE @249
    _ZN11xlslib_core17z_ary_func_node_tC2ERNS_14CGlobalRecordsENS_20expr_function_code_tE @250
    _ZN11xlslib_core17z_ary_func_node_tD0Ev @251
    _ZN11xlslib_core17z_ary_func_node_tD1Ev @252
    _ZN11xlslib_core17z_ary_func_node_tD2Ev @253
    _ZN11xlslib_core18binary_func_node_tC1ERNS_14CGlobalRecordsENS_20expr_function_code_tEPNS_17expression_node_tES5_ @254
    _ZN11xlslib_core18binary_func_node_tC2ERNS_14CGlobalRecordsENS_20expr_function_code_tEPNS_17expression_node_tES5_ @255
    _ZN11xlslib_core18binary_func_node_tD0Ev @256
    _ZN11xlslib_core18binary_func_node_tD1Ev @257
    _ZN11xlslib_core18binary_func_node_tD2Ev @258
    _ZN11xlslib_core18error_value_node_tC1ERNS_14CGlobalRecordsENS_9errcode_tE @259
    _ZN11xlslib_core18error_value_node_tC2ERNS_14CGlobalRecordsENS_9errcode_tE @260
    _ZN11xlslib_core18error_value_node_tD0Ev @261
    _ZN11xlslib_core18error_value_node_tD1Ev @262
    _ZN11xlslib_core18error_value_node_tD2Ev @263
    _ZN11xlslib_core18float_value_node_tC1ERNS_14CGlobalRecordsEd @264
    _ZN11xlslib_core18float_value_node_tC2ERNS_14CGlobalRecordsEd @265
    _ZN11xlslib_core18float_value_node_tD0Ev @266
    _ZN11xlslib_core18float_value_node_tD1Ev @267
    _ZN11xlslib_core18float_value_node_tD2Ev @268
    _ZN11xlslib_core18missing_arg_node_tC1ERNS_14CGlobalRecordsE @269
    _ZN11xlslib_core18missing_arg_node_tC2ERNS_14CGlobalRecordsE @270
    _ZN11xlslib_core18missing_arg_node_tD0Ev @271
    _ZN11xlslib_core18missing_arg_node_tD1Ev @272
    _ZN11xlslib_core18missing_arg_node_tD2Ev @273
    _ZN11xlslib_core19function_basenode_tC1ERNS_14CGlobalRecordsENS_20expr_function_code_tE @274
    _ZN11xlslib_core19function_basenode_tC2ERNS_14CGlobalRecordsENS_20expr_function_code_tE @275
    _ZN11xlslib_core19function_basenode_tD0Ev @276
    _ZN11xlslib_core19function_basenode_tD1Ev @277
    _ZN11xlslib_core19function_basenode_tD2Ev @278
    _ZN11xlslib_core19operator_basenode_tC1ERNS_14CGlobalRecordsENS_20expr_operator_code_tE @279
    _ZN11xlslib_core19operator_basenode_tC2ERNS_14CGlobalRecordsENS_20expr_operator_code_tE @280
    _ZN11xlslib_core19operator_basenode_tD0Ev @281
    _ZN11xlslib_core19operator_basenode_tD1Ev @282
    _ZN11xlslib_core19operator_basenode_tD2Ev @283
    _ZN11xlslib_core19property2docSummaryE @284 DATA
    _ZN11xlslib_core19userdef_func_node_tC1ERNS_14CGlobalRecordsEijPPNS_17expression_node_tE @285
    _ZN11xlslib_core19userdef_func_node_tC2ERNS_14CGlobalRecordsEijPPNS_17expression_node_tE @286
    _ZN11xlslib_core19userdef_func_node_tD0Ev @287
    _ZN11xlslib_core19userdef_func_node_tD1Ev @288
    _ZN11xlslib_core19userdef_func_node_tD2Ev @289
    _ZN11xlslib_core20boolean_value_node_tC1ERNS_14CGlobalRecordsEb @290
    _ZN11xlslib_core20boolean_value_node_tC2ERNS_14CGlobalRecordsEb @291
    _ZN11xlslib_core20boolean_value_node_tD0Ev @292
    _ZN11xlslib_core20boolean_value_node_tD1Ev @293
    _ZN11xlslib_core20boolean_value_node_tD2Ev @294
    _ZN11xlslib_core20integer_value_node_tC1ERNS_14CGlobalRecordsEi @295
    _ZN11xlslib_core20integer_value_node_tC2ERNS_14CGlobalRecordsEi @296
    _ZN11xlslib_core20integer_value_node_tD0Ev @297
    _ZN11xlslib_core20integer_value_node_tD1Ev @298
    _ZN11xlslib_core20integer_value_node_tD2Ev @299
    _ZN11xlslib_core21cellarea_deref_node_tC1ERNS_14CGlobalRecordsERKNS_6cell_tES5_NS_16cell_addr_mode_tENS_15cell_op_class_tE @300
    _ZN11xlslib_core21cellarea_deref_node_tC1ERNS_14CGlobalRecordsERKNS_6cell_tES5_PKNS_9worksheetENS_16cell_addr_mode_tENS_15cell_op_class_tE @301
    _ZN11xlslib_core21cellarea_deref_node_tC2ERNS_14CGlobalRecordsERKNS_6cell_tES5_NS_16cell_addr_mode_tENS_15cell_op_class_tE @302
    _ZN11xlslib_core21cellarea_deref_node_tC2ERNS_14CGlobalRecordsERKNS_6cell_tES5_PKNS_9worksheetENS_16cell_addr_mode_tENS_15cell_op_class_tE @303
    _ZN11xlslib_core21cellarea_deref_node_tD0Ev @304
    _ZN11xlslib_core21cellarea_deref_node_tD1Ev @305
    _ZN11xlslib_core21cellarea_deref_node_tD2Ev @306
    _ZN11xlslib_core25expression_node_factory_t11error_valueENS_9errcode_tE @307
    _ZN11xlslib_core25expression_node_factory_t11missing_argEv @308
    _ZN11xlslib_core25expression_node_factory_t14floating_pointEd @309
    _ZN11xlslib_core25expression_node_factory_t1fENS_20expr_function_code_tE @310
    _ZN11xlslib_core25expression_node_factory_t1fENS_20expr_function_code_tEPNS_17expression_node_tE @311
    _ZN11xlslib_core25expression_node_factory_t1fENS_20expr_function_code_tEPNS_17expression_node_tES3_ @312
    _ZN11xlslib_core25expression_node_factory_t1fENS_20expr_function_code_tEjPPNS_17expression_node_tE @313
    _ZN11xlslib_core25expression_node_factory_t2opENS_20expr_operator_code_tEPNS_17expression_node_tE @314
    _ZN11xlslib_core25expression_node_factory_t2opENS_20expr_operator_code_tEPNS_17expression_node_tES3_ @315
    _ZN11xlslib_core25expression_node_factory_t3udfEijPPNS_17expression_node_tE @316
    _ZN11xlslib_core25expression_node_factory_t4areaERKNS_6cell_tES3_NS_16cell_addr_mode_tENS_15cell_op_class_tE @317
    _ZN11xlslib_core25expression_node_factory_t4areaERKNS_6cell_tES3_PKNS_9worksheetENS_16cell_addr_mode_tENS_15cell_op_class_tE @318
    _ZN11xlslib_core25expression_node_factory_t4cellERKNS_6cell_tENS_16cell_addr_mode_tENS_15cell_op_class_tE @319
    _ZN11xlslib_core25expression_node_factory_t4cellERKNS_6cell_tEPKNS_9worksheetENS_16cell_addr_mode_tENS_15cell_op_class_tE @320
    _ZN11xlslib_core25expression_node_factory_t4textERKSbItSt11char_traitsItESaItEE @321
    _ZN11xlslib_core25expression_node_factory_t4textERKSs @322
    _ZN11xlslib_core25expression_node_factory_t7booleanEb @323
    _ZN11xlslib_core25expression_node_factory_t7integerEi @324
    _ZN11xlslib_core25expression_node_factory_tC1ERNS_14CGlobalRecordsE @325
    _ZN11xlslib_core25expression_node_factory_tC2ERNS_14CGlobalRecordsE @326
    _ZN11xlslib_core25expression_node_factory_tD0Ev @327
    _ZN11xlslib_core25expression_node_factory_tD1Ev @328
    _ZN11xlslib_core25expression_node_factory_tD2Ev @329
    _ZN11xlslib_core25expression_node_factory_taSERKS0_ @330
    _ZN11xlslib_core26estimated_formula_result_t10SetBooleanEb @331
    _ZN11xlslib_core26estimated_formula_result_t10SetIntegerEi @332
    _ZN11xlslib_core26estimated_formula_result_t11clear_valueENS0_13estval_type_tE @333
    _ZN11xlslib_core26estimated_formula_result_t12SetErrorCodeENS_9errcode_tE @334
    _ZN11xlslib_core26estimated_formula_result_t13SetCalcAlwaysEv @335
    _ZN11xlslib_core26estimated_formula_result_t13SetCalcOnLoadEv @336
    _ZN11xlslib_core26estimated_formula_result_t16SetFloatingPointEd @337
    _ZN11xlslib_core26estimated_formula_result_t7SetTextERKSbItSt11char_traitsItESaItEE @338
    _ZN11xlslib_core26estimated_formula_result_t7SetTextERKSbIwSt11char_traitsIwESaIwEE @339
    _ZN11xlslib_core26estimated_formula_result_t7SetTextERKSs @340
    _ZN11xlslib_core26estimated_formula_result_tC1ERNS_14CGlobalRecordsE @341
    _ZN11xlslib_core26estimated_formula_result_tC2ERNS_14CGlobalRecordsE @342
    _ZN11xlslib_core26estimated_formula_result_tD0Ev @343
    _ZN11xlslib_core26estimated_formula_result_tD1Ev @344
    _ZN11xlslib_core26estimated_formula_result_tD2Ev @345
    _ZN11xlslib_core26estimated_formula_result_taSERKS0_ @346
    _ZN11xlslib_core28NumberOfArgsForExcelFunctionENS_20expr_function_code_tE @347
    _ZN11xlslib_core4CBofC1ERNS_12CDataStorageEt @348
    _ZN11xlslib_core4CBofC2ERNS_12CDataStorageEt @349
    _ZN11xlslib_core4CBofD0Ev @350
    _ZN11xlslib_core4CBofD1Ev @351
    _ZN11xlslib_core4CBofD2Ev @352
    _ZN11xlslib_core4CEofC1ERNS_12CDataStorageE @353
    _ZN11xlslib_core4CEofC2ERNS_12CDataStorageE @354
    _ZN11xlslib_core4CEofD0Ev @355
    _ZN11xlslib_core4CEofD1Ev @356
    _ZN11xlslib_core4CEofD2Ev @357
    _ZN11xlslib_core4CErrC1ERNS_12CDataStorageERKNS_5err_tE @358
    _ZN11xlslib_core4CErrC2ERNS_12CDataStorageERKNS_5err_tE @359
    _ZN11xlslib_core4CErrD0Ev @360
    _ZN11xlslib_core4CErrD1Ev @361
    _ZN11xlslib_core4CErrD2Ev @362
    _ZN11xlslib_core4CRowC1ERNS_12CDataStorageEjjjtPKNS_4xf_tE @363
    _ZN11xlslib_core4CRowC2ERNS_12CDataStorageEjjjtPKNS_4xf_tE @364
    _ZN11xlslib_core4CRowD0Ev @365
    _ZN11xlslib_core4CRowD1Ev @366
    _ZN11xlslib_core4CRowD2Ev @367
    _ZN11xlslib_core4xf_iC2Ev @368
    _ZN11xlslib_core4xf_iD0Ev @369
    _ZN11xlslib_core4xf_iD1Ev @370
    _ZN11xlslib_core4xf_iD2Ev @371
    _ZN11xlslib_core4xf_t10UnMarkUsedEv @372
    _ZN11xlslib_core4xf_t11SetCellModeEb @373
    _ZN11xlslib_core4xf_t12SetFillStyleENS_13fill_option_tE @374
    _ZN11xlslib_core4xf_t14SetBorderColorENS_13border_side_tENS_12color_name_tE @375
    _ZN11xlslib_core4xf_t14SetBorderColorENS_13border_side_tEh @376
    _ZN11xlslib_core4xf_t14SetBorderStyleENS_13border_side_tENS_14border_style_tE @377
    _ZN11xlslib_core4xf_t14SetFillBGColorENS_12color_name_tE @378
    _ZN11xlslib_core4xf_t14SetFillBGColorEh @379
    _ZN11xlslib_core4xf_t14SetFillFGColorENS_12color_name_tE @380
    _ZN11xlslib_core4xf_t14SetFillFGColorEh @381
    _ZN11xlslib_core4xf_t14SetFormatIndexEt @382
    _ZN11xlslib_core4xf_t17SetTxtOrientationENS_15txtori_option_tE @383
    _ZN11xlslib_core4xf_t18FILL_OPTIONS_TABLEE @384 DATA
    _ZN11xlslib_core4xf_t18GetDefaultXFshadowERNS_14CGlobalRecordsEbb @385
    _ZN11xlslib_core4xf_t19COLOR_OPTIONS_TABLEE @386 DATA
    _ZN11xlslib_core4xf_t20HALIGN_OPTIONS_TABLEE @387 DATA
    _ZN11xlslib_core4xf_t20INDENT_OPTIONS_TABLEE @388 DATA
    _ZN11xlslib_core4xf_t20TXTORI_OPTIONS_TABLEE @389 DATA
    _ZN11xlslib_core4xf_t20VALIGN_OPTIONS_TABLEE @390 DATA
    _ZN11xlslib_core4xf_t25BORDERSTYLE_OPTIONS_TABLEE @391 DATA
    _ZN11xlslib_core4xf_t5xfDupEPKS0_ @392
    _ZN11xlslib_core4xf_t7AtuneXFEv @393
    _ZN11xlslib_core4xf_t7SetFlagEh @394
    _ZN11xlslib_core4xf_t7SetFontEPNS_6font_tE @395
    _ZN11xlslib_core4xf_t7SetWrapEb @396
    _ZN11xlslib_core4xf_t7xfiInitE @397 DATA
    _ZN11xlslib_core4xf_t8MarkUsedEv @398
    _ZN11xlslib_core4xf_t8SetIndexEt @399
    _ZN11xlslib_core4xf_t9ClearFlagEh @400
    _ZN11xlslib_core4xf_t9SetFormatENS_15format_number_tE @401
    _ZN11xlslib_core4xf_t9SetFormatEPNS_8format_tE @402
    _ZN11xlslib_core4xf_t9SetHAlignENS_15halign_option_tE @403
    _ZN11xlslib_core4xf_t9SetHiddenEb @404
    _ZN11xlslib_core4xf_t9SetIndentENS_15indent_option_tE @405
    _ZN11xlslib_core4xf_t9SetLockedEb @406
    _ZN11xlslib_core4xf_t9SetParentEPKS0_ @407
    _ZN11xlslib_core4xf_t9SetVAlignENS_15valign_option_tE @408
    _ZN11xlslib_core4xf_tC1ERKS0_ @409
    _ZN11xlslib_core4xf_tC1ERNS_14CGlobalRecordsERKNS_9xf_init_tE @410
    _ZN11xlslib_core4xf_tC1ERNS_14CGlobalRecordsEbbb @411
    _ZN11xlslib_core4xf_tC2ERKS0_ @412
    _ZN11xlslib_core4xf_tC2ERNS_14CGlobalRecordsERKNS_9xf_init_tE @413
    _ZN11xlslib_core4xf_tC2ERNS_14CGlobalRecordsEbbb @414
    _ZN11xlslib_core4xf_tD0Ev @415
    _ZN11xlslib_core4xf_tD1Ev @416
    _ZN11xlslib_core4xf_tD2Ev @417
    _ZN11xlslib_core4xf_taSERKS0_ @418
    _ZN11xlslib_core4xf_teqERKS0_ @419
    _ZN11xlslib_core5CFontC1ERNS_12CDataStorageEPKNS_6font_tE @420
    _ZN11xlslib_core5CFontC2ERNS_12CDataStorageEPKNS_6font_tE @421
    _ZN11xlslib_core5CFontD0Ev @422
    _ZN11xlslib_core5CFontD1Ev @423
    _ZN11xlslib_core5CFontD2Ev @424
    _ZN11xlslib_core5CNote13mk_obj_RecordEPKNS_6note_tE @425
    _ZN11xlslib_core5CNote20mk_obj_CMO_SubRecordEPKNS_6note_tE @426
    _ZN11xlslib_core5CNote20mk_obj_END_SubRecordEPKNS_6note_tE @427
    _ZN11xlslib_core5CNote20mk_obj_NTS_SubRecordEPKNS_6note_tE @428
    _ZN11xlslib_core5CNoteC1ERNS_12CDataStorageERKNS_6note_tE @429
    _ZN11xlslib_core5CNoteC2ERNS_12CDataStorageERKNS_6note_tE @430
    _ZN11xlslib_core5CNoteD0Ev @431
    _ZN11xlslib_core5CNoteD1Ev @432
    _ZN11xlslib_core5CNoteD2Ev @433
    _ZN11xlslib_core5CUnit10AddValue16Et @434
    _ZN11xlslib_core5CUnit10AddValue32Ej @435
    _ZN11xlslib_core5CUnit10AddValue64Ey @436
    _ZN11xlslib_core5CUnit10SetArrayAtEPKhjj @437
    _ZN11xlslib_core5CUnit11SetValueAt8Ehj @438
    _ZN11xlslib_core5CUnit12AddDataArrayEPKhj @439
    _ZN11xlslib_core5CUnit12AddValue64FPEd @440
    _ZN11xlslib_core5CUnit12SetValueAt16Etj @441
    _ZN11xlslib_core5CUnit12SetValueAt32Ejj @442
    _ZN11xlslib_core5CUnit16AddUnicodeStringERKSbItSt11char_traitsItESaItEENS0_24XlsUnicodeStringFormat_tE @443
    _ZN11xlslib_core5CUnit16AddUnicodeStringERNS_14CGlobalRecordsERKSsNS0_24XlsUnicodeStringFormat_tE @444
    _ZN11xlslib_core5CUnit16ResetDataStorageEv @445
    _ZN11xlslib_core5CUnit17AddFixedDataArrayEhj @446
    _ZN11xlslib_core5CUnit18DefaultInflateSizeE @447 DATA
    _ZN11xlslib_core5CUnit19SetAlreadyContinuedEb @448
    _ZN11xlslib_core5CUnit19UnicodeStringLengthERKSbItSt11char_traitsItESaItEERjRbNS0_24XlsUnicodeStringFormat_tE @449
    _ZN11xlslib_core5CUnit4InitEPKhjj @450
    _ZN11xlslib_core5CUnit6AppendERKS0_ @451
    _ZN11xlslib_core5CUnit7InflateEj @452
    _ZN11xlslib_core5CUnit8InitFillEhj @453
    _ZN11xlslib_core5CUnit9AddValue8Eh @454
    _ZN11xlslib_core5CUnit9DataStoreEv @455
    _ZN11xlslib_core5CUnitC1ERKS0_ @456
    _ZN11xlslib_core5CUnitC1ERNS_12CDataStorageE @457
    _ZN11xlslib_core5CUnitC2ERKS0_ @458
    _ZN11xlslib_core5CUnitC2ERNS_12CDataStorageE @459
    _ZN11xlslib_core5CUnitD0Ev @460
    _ZN11xlslib_core5CUnitD1Ev @461
    _ZN11xlslib_core5CUnitD2Ev @462
    _ZN11xlslib_core5CUnitaSERKS0_ @463
    _ZN11xlslib_core5CUnitpLERKS0_ @464
    _ZN11xlslib_core5CUnitpLEh @465
    _ZN11xlslib_core5err_tC1ERNS_14CGlobalRecordsEjjNS_9errcode_tEPNS_4xf_tE @466
    _ZN11xlslib_core5err_tC2ERNS_14CGlobalRecordsEjjNS_9errcode_tEPNS_4xf_tE @467
    _ZN11xlslib_core5err_tD0Ev @468
    _ZN11xlslib_core5err_tD1Ev @469
    _ZN11xlslib_core5range10fontheightEt @470
    _ZN11xlslib_core5range10fontitalicEb @471
    _ZN11xlslib_core5range10fontscriptENS_15script_option_tE @472
    _ZN11xlslib_core5range10fontshadowEb @473
    _ZN11xlslib_core5range11bordercolorENS_13border_side_tENS_12color_name_tE @474
    _ZN11xlslib_core5range11bordercolorENS_13border_side_tEh @475
    _ZN11xlslib_core5range11borderstyleENS_13border_side_tENS_14border_style_tE @476
    _ZN11xlslib_core5range11fillbgcolorENS_12color_name_tE @477
    _ZN11xlslib_core5range11fillbgcolorEh @478
    _ZN11xlslib_core5range11fillfgcolorENS_12color_name_tE @479
    _ZN11xlslib_core5range11fillfgcolorEh @480
    _ZN11xlslib_core5range11fontoutlineEb @481
    _ZN11xlslib_core5range11orientationENS_15txtori_option_tE @482
    _ZN11xlslib_core5range13fontstrikeoutEb @483
    _ZN11xlslib_core5range13fontunderlineENS_18underline_option_tE @484
    _ZN11xlslib_core5range4fontEPNS_6font_tE @485
    _ZN11xlslib_core5range4wrapEb @486
    _ZN11xlslib_core5range5boxerENS_14border_style_tENS_13fill_option_tENS_12color_name_tES3_S3_ @487
    _ZN11xlslib_core5range6formatENS_15format_number_tE @488
    _ZN11xlslib_core5range6formatEPNS_8format_tE @489
    _ZN11xlslib_core5range6halignENS_15halign_option_tE @490
    _ZN11xlslib_core5range6hiddenEb @491
    _ZN11xlslib_core5range6indentENS_15indent_option_tE @492
    _ZN11xlslib_core5range6lockedEb @493
    _ZN11xlslib_core5range6valignENS_15valign_option_tE @494
    _ZN11xlslib_core5range8fontboldENS_17boldness_option_tE @495
    _ZN11xlslib_core5range8fontnameERKSs @496
    _ZN11xlslib_core5range9cellcolorENS_12color_name_tE @497
    _ZN11xlslib_core5range9fillstyleENS_13fill_option_tE @498
    _ZN11xlslib_core5range9fontcolorENS_12color_name_tE @499
    _ZN11xlslib_core5range9fontcolorEh @500
    _ZN11xlslib_core5rangeC1EjjjjPNS_9worksheetE @501
    _ZN11xlslib_core5rangeC2EjjjjPNS_9worksheetE @502
    _ZN11xlslib_core5rangeD0Ev @503
    _ZN11xlslib_core5rangeD1Ev @504
    _ZN11xlslib_core5rangeD2Ev @505
    _ZN11xlslib_core6CBlankC1ERNS_12CDataStorageERKNS_7blank_tE @506
    _ZN11xlslib_core6CBlankC2ERNS_12CDataStorageERKNS_7blank_tE @507
    _ZN11xlslib_core6CBlankD0Ev @508
    _ZN11xlslib_core6CBlankD1Ev @509
    _ZN11xlslib_core6CBlankD2Ev @510
    _ZN11xlslib_core6CIndex10GetLastRowEv @511
    _ZN11xlslib_core6CIndex11GetFirstRowEv @512
    _ZN11xlslib_core6CIndex15AddDBCellOffsetEj @513
    _ZN11xlslib_core6CIndex7SetRowsEjj @514
    _ZN11xlslib_core6CIndexC1ERNS_12CDataStorageEjj @515
    _ZN11xlslib_core6CIndexC2ERNS_12CDataStorageEjj @516
    _ZN11xlslib_core6CIndexD0Ev @517
    _ZN11xlslib_core6CIndexD1Ev @518
    _ZN11xlslib_core6CIndexD2Ev @519
    _ZN11xlslib_core6CLabelC1ERNS_12CDataStorageERKNS_7label_tE @520
    _ZN11xlslib_core6CLabelC2ERNS_12CDataStorageERKNS_7label_tE @521
    _ZN11xlslib_core6CLabelD0Ev @522
    _ZN11xlslib_core6CLabelD1Ev @523
    _ZN11xlslib_core6CLabelD2Ev @524
    _ZN11xlslib_core6CStyleC1ERNS_12CDataStorageEPKNS_7style_tE @525
    _ZN11xlslib_core6CStyleC2ERNS_12CDataStorageEPKNS_7style_tE @526
    _ZN11xlslib_core6CStyleD0Ev @527
    _ZN11xlslib_core6CStyleD1Ev @528
    _ZN11xlslib_core6CStyleD2Ev @529
    _ZN11xlslib_core6cell_t10fontheightEt @530
    _ZN11xlslib_core6cell_t10fontitalicEb @531
    _ZN11xlslib_core6cell_t10fontscriptENS_15script_option_tE @532
    _ZN11xlslib_core6cell_t10fontshadowEb @533
    _ZN11xlslib_core6cell_t11bordercolorENS_13border_side_tENS_12color_name_tE @534
    _ZN11xlslib_core6cell_t11bordercolorENS_13border_side_tEh @535
    _ZN11xlslib_core6cell_t11borderstyleENS_13border_side_tENS_14border_style_tE @536
    _ZN11xlslib_core6cell_t11fillbgcolorENS_12color_name_tE @537
    _ZN11xlslib_core6cell_t11fillbgcolorEh @538
    _ZN11xlslib_core6cell_t11fillfgcolorENS_12color_name_tE @539
    _ZN11xlslib_core6cell_t11fillfgcolorEh @540
    _ZN11xlslib_core6cell_t11fontoutlineEb @541
    _ZN11xlslib_core6cell_t11orientationENS_15txtori_option_tE @542
    _ZN11xlslib_core6cell_t13fontstrikeoutEb @543
    _ZN11xlslib_core6cell_t13fontunderlineENS_18underline_option_tE @544
    _ZN11xlslib_core6cell_t13set_cell_fontEv @545
    _ZN11xlslib_core6cell_t13set_xf_commonEv @546
    _ZN11xlslib_core6cell_t4fontEPNS_6font_tE @547
    _ZN11xlslib_core6cell_t4wrapEb @548
    _ZN11xlslib_core6cell_t5SetXFEPNS_4xf_tE @549
    _ZN11xlslib_core6cell_t6formatENS_15format_number_tE @550
    _ZN11xlslib_core6cell_t6formatEPNS_8format_tE @551
    _ZN11xlslib_core6cell_t6halignENS_15halign_option_tE @552
    _ZN11xlslib_core6cell_t6hiddenEb @553
    _ZN11xlslib_core6cell_t6indentENS_15indent_option_tE @554
    _ZN11xlslib_core6cell_t6lockedEb @555
    _ZN11xlslib_core6cell_t6valignENS_15valign_option_tE @556
    _ZN11xlslib_core6cell_t8fontboldENS_17boldness_option_tE @557
    _ZN11xlslib_core6cell_t8fontnameERKSs @558
    _ZN11xlslib_core6cell_t9fillstyleENS_13fill_option_tE @559
    _ZN11xlslib_core6cell_t9fontcolorENS_12color_name_tE @560
    _ZN11xlslib_core6cell_t9fontcolorEh @561
    _ZN11xlslib_core6cell_tC1ERNS_14CGlobalRecordsEjjPNS_4xf_tE @562
    _ZN11xlslib_core6cell_tC2ERNS_14CGlobalRecordsEjjPNS_4xf_tE @563
    _ZN11xlslib_core6cell_tD0Ev @564
    _ZN11xlslib_core6cell_tD1Ev @565
    _ZN11xlslib_core6cell_tD2Ev @566
    _ZN11xlslib_core6font_iC2Ev @567
    _ZN11xlslib_core6font_iD0Ev @568
    _ZN11xlslib_core6font_iD1Ev @569
    _ZN11xlslib_core6font_iD2Ev @570
    _ZN11xlslib_core6font_t10SetCharsetEh @571
    _ZN11xlslib_core6font_t10SetOutlineEb @572
    _ZN11xlslib_core6font_t10UnMarkUsedEv @573
    _ZN11xlslib_core6font_t12SetBoldStyleENS_17boldness_option_tE @574
    _ZN11xlslib_core6font_t12SetStrikeoutEb @575
    _ZN11xlslib_core6font_t13_SetBoldStyleEt @576
    _ZN11xlslib_core6font_t14SetScriptStyleENS_15script_option_tE @577
    _ZN11xlslib_core6font_t17BOLD_OPTION_TABLEE @578 DATA
    _ZN11xlslib_core6font_t17SetUnderlineStyleENS_18underline_option_tE @579
    _ZN11xlslib_core6font_t18COLOR_OPTION_TABLEE @580 DATA
    _ZN11xlslib_core6font_t19SCRIPT_OPTION_TABLEE @581 DATA
    _ZN11xlslib_core6font_t22UNDERLINE_OPTION_TABLEE @582 DATA
    _ZN11xlslib_core6font_t7SetNameERKSs @583
    _ZN11xlslib_core6font_t7fontDupEPKS0_ @584
    _ZN11xlslib_core6font_t8MarkUsedEv @585
    _ZN11xlslib_core6font_t8SetColorENS_12color_name_tE @586
    _ZN11xlslib_core6font_t8SetColorEh @587
    _ZN11xlslib_core6font_t8SetIndexEt @588
    _ZN11xlslib_core6font_t9SetFamilyEh @589
    _ZN11xlslib_core6font_t9SetHeightEt @590
    _ZN11xlslib_core6font_t9SetItalicEb @591
    _ZN11xlslib_core6font_t9SetShadowEb @592
    _ZN11xlslib_core6font_tC1ERKS0_ @593
    _ZN11xlslib_core6font_tC1ERNS_14CGlobalRecordsE @594
    _ZN11xlslib_core6font_tC1ERNS_14CGlobalRecordsEtRKSstNS_17boldness_option_tENS_18underline_option_tENS_15script_option_tENS_12color_name_tEthh @595
    _ZN11xlslib_core6font_tC2ERKS0_ @596
    _ZN11xlslib_core6font_tC2ERNS_14CGlobalRecordsE @597
    _ZN11xlslib_core6font_tC2ERNS_14CGlobalRecordsEtRKSstNS_17boldness_option_tENS_18underline_option_tENS_15script_option_tENS_12color_name_tEthh @598
    _ZN11xlslib_core6font_tD0Ev @599
    _ZN11xlslib_core6font_tD1Ev @600
    _ZN11xlslib_core6font_taSERKS0_ @601
    _ZN11xlslib_core6note_tC1ERNS_14CGlobalRecordsEjjRKSbItSt11char_traitsItESaItEES8_PNS_4xf_tE @602
    _ZN11xlslib_core6note_tC1ERNS_14CGlobalRecordsEjjRKSbIwSt11char_traitsIwESaIwEES8_PNS_4xf_tE @603
    _ZN11xlslib_core6note_tC1ERNS_14CGlobalRecordsEjjRKSsS4_PNS_4xf_tE @604
    _ZN11xlslib_core6note_tC2ERNS_14CGlobalRecordsEjjRKSbItSt11char_traitsItESaItEES8_PNS_4xf_tE @605
    _ZN11xlslib_core6note_tC2ERNS_14CGlobalRecordsEjjRKSbIwSt11char_traitsIwESaIwEES8_PNS_4xf_tE @606
    _ZN11xlslib_core6note_tC2ERNS_14CGlobalRecordsEjjRKSsS4_PNS_4xf_tE @607
    _ZN11xlslib_core6note_tD0Ev @608
    _ZN11xlslib_core6note_tD1Ev @609
    _ZN11xlslib_core6note_tD2Ev @610
    _ZN11xlslib_core7CBSheet17SetStreamPositionEj @611
    _ZN11xlslib_core7CBSheetC1ERNS_12CDataStorageEPKNS_12boundsheet_tE @612
    _ZN11xlslib_core7CBSheetC2ERNS_12CDataStorageEPKNS_12boundsheet_tE @613
    _ZN11xlslib_core7CBSheetD0Ev @614
    _ZN11xlslib_core7CBSheetD1Ev @615
    _ZN11xlslib_core7CBSheetD2Ev @616
    _ZN11xlslib_core7CDBCell12AddRowOffsetEj @617
    _ZN11xlslib_core7CDBCellC1ERNS_12CDataStorageEj @618
    _ZN11xlslib_core7CDBCellC2ERNS_12CDataStorageEj @619
    _ZN11xlslib_core7CDBCellD0Ev @620
    _ZN11xlslib_core7CDBCellD1Ev @621
    _ZN11xlslib_core7CDBCellD2Ev @622
    _ZN11xlslib_core7CFormatC1ERNS_12CDataStorageEPKNS_8format_tE @623
    _ZN11xlslib_core7CFormatC2ERNS_12CDataStorageEPKNS_8format_tE @624
    _ZN11xlslib_core7CFormatD0Ev @625
    _ZN11xlslib_core7CFormatD1Ev @626
    _ZN11xlslib_core7CFormatD2Ev @627
    _ZN11xlslib_core7CNumberC1ERNS_12CDataStorageERKNS_8number_tE @628
    _ZN11xlslib_core7CNumberC2ERNS_12CDataStorageERKNS_8number_tE @629
    _ZN11xlslib_core7CNumberD0Ev @630
    _ZN11xlslib_core7CNumberD1Ev @631
    _ZN11xlslib_core7CNumberD2Ev @632
    _ZN11xlslib_core7COleDoc10DumpDepotsENS_6blocksE @633
    _ZN11xlslib_core7COleDoc10DumpHeaderENS_6blocksEj @634
    _ZN11xlslib_core7COleDoc11DumpOleFileEv @635
    _ZN11xlslib_core7COleDoc11GetBATCountEv @636
    _ZN11xlslib_core7COleDoc12OLE_FILETYPEE @637 DATA
    _ZN11xlslib_core7COleDoc14DumpFileSystemEv @638
    _ZN11xlslib_core7COleDoc14GetUnicodeNameEPKcPPc @639
    _ZN11xlslib_core7COleDoc8DumpDataEv @640
    _ZN11xlslib_core7COleDoc8DumpNodeERNS_8COlePropE @641
    _ZN11xlslib_core7COleDocC1Ev @642
    _ZN11xlslib_core7COleDocC2Ev @643
    _ZN11xlslib_core7COleDocD0Ev @644
    _ZN11xlslib_core7COleDocD1Ev @645
    _ZN11xlslib_core7COleDocD2Ev @646
    _ZN11xlslib_core7CRecord13SetRecordTypeEt @647
    _ZN11xlslib_core7CRecord15SetRecordLengthEj @648
    _ZN11xlslib_core7CRecord20SetRecordTypeIndexedEtj @649
    _ZN11xlslib_core7CRecord22SetRecordLengthIndexedEjj @650
    _ZN11xlslib_core7CRecordC1ERNS_12CDataStorageE @651
    _ZN11xlslib_core7CRecordC2ERNS_12CDataStorageE @652
    _ZN11xlslib_core7CRecordD0Ev @653
    _ZN11xlslib_core7CRecordD1Ev @654
    _ZN11xlslib_core7CRecordD2Ev @655
    _ZN11xlslib_core7blank_tC1ERNS_14CGlobalRecordsEjjPNS_4xf_tE @656
    _ZN11xlslib_core7blank_tC2ERNS_14CGlobalRecordsEjjPNS_4xf_tE @657
    _ZN11xlslib_core7blank_tD0Ev @658
    _ZN11xlslib_core7blank_tD1Ev @659
    _ZN11xlslib_core7blank_tD2Ev @660
    _ZN11xlslib_core7label_t7setTypeEv @661
    _ZN11xlslib_core7label_tC1ERNS_14CGlobalRecordsEjjRKSbItSt11char_traitsItESaItEEPNS_4xf_tE @662
    _ZN11xlslib_core7label_tC1ERNS_14CGlobalRecordsEjjRKSbIwSt11char_traitsIwESaIwEEPNS_4xf_tE @663
    _ZN11xlslib_core7label_tC1ERNS_14CGlobalRecordsEjjRKSsPNS_4xf_tE @664
    _ZN11xlslib_core7label_tC2ERNS_14CGlobalRecordsEjjRKSbItSt11char_traitsItESaItEEPNS_4xf_tE @665
    _ZN11xlslib_core7label_tC2ERNS_14CGlobalRecordsEjjRKSbIwSt11char_traitsIwESaIwEEPNS_4xf_tE @666
    _ZN11xlslib_core7label_tC2ERNS_14CGlobalRecordsEjjRKSsPNS_4xf_tE @667
    _ZN11xlslib_core7label_tD0Ev @668
    _ZN11xlslib_core7label_tD1Ev @669
    _ZN11xlslib_core7label_tD2Ev @670
    _ZN11xlslib_core7range_tC1Ev @671
    _ZN11xlslib_core7range_tC2Ev @672
    _ZN11xlslib_core7range_tD0Ev @673
    _ZN11xlslib_core7range_tD1Ev @674
    _ZN11xlslib_core7range_tD2Ev @675
    _ZN11xlslib_core7window111SetFirstTabEt @676
    _ZN11xlslib_core7window111SetPositionEtt @677
    _ZN11xlslib_core7window114SetActiveSheetEt @678
    _ZN11xlslib_core7window114SetTabBarWidthEt @679
    _ZN11xlslib_core7window17SetSizeEtt @680
    _ZN11xlslib_core7window1C1Ev @681
    _ZN11xlslib_core7window1C2Ev @682
    _ZN11xlslib_core7window1D0Ev @683
    _ZN11xlslib_core7window1D1Ev @684
    _ZN11xlslib_core7window1D2Ev @685
    _ZN11xlslib_core8CBinFile13WriteSigned16Es @686
    _ZN11xlslib_core8CBinFile13WriteSigned32Ei @687
    _ZN11xlslib_core8CBinFile13write_serviceEPKcj @688
    _ZN11xlslib_core8CBinFile14WriteByteArrayEPKhj @689
    _ZN11xlslib_core8CBinFile15WriteUnsigned16Et @690
    _ZN11xlslib_core8CBinFile15WriteUnsigned32Ej @691
    _ZN11xlslib_core8CBinFile19SerializeFixedArrayEhj @692
    _ZN11xlslib_core8CBinFile4OpenERKSs @693
    _ZN11xlslib_core8CBinFile5CloseEv @694
    _ZN11xlslib_core8CBinFile5WriteEPhj @695
    _ZN11xlslib_core8CBinFile5WriteERNS_5CUnitE @696
    _ZN11xlslib_core8CBinFile8PositionEv @697
    _ZN11xlslib_core8CBinFile9WriteByteEh @698
    _ZN11xlslib_core8CBinFileC1Ev @699
    _ZN11xlslib_core8CBinFileC2Ev @700
    _ZN11xlslib_core8CBinFileD0Ev @701
    _ZN11xlslib_core8CBinFileD1Ev @702
    _ZN11xlslib_core8CBinFileD2Ev @703
    _ZN11xlslib_core8CBooleanC1ERNS_12CDataStorageERKNS_9boolean_tE @704
    _ZN11xlslib_core8CBooleanC2ERNS_12CDataStorageERKNS_9boolean_tE @705
    _ZN11xlslib_core8CBooleanD0Ev @706
    _ZN11xlslib_core8CBooleanD1Ev @707
    _ZN11xlslib_core8CBooleanD2Ev @708
    _ZN11xlslib_core8CColInfoC1ERNS_12CDataStorageEPKNS_9colinfo_tE @709
    _ZN11xlslib_core8CColInfoC2ERNS_12CDataStorageEPKNS_9colinfo_tE @710
    _ZN11xlslib_core8CColInfoD0Ev @711
    _ZN11xlslib_core8CColInfoD1Ev @712
    _ZN11xlslib_core8CColInfoD2Ev @713
    _ZN11xlslib_core8CFormulaC1ERNS_12CDataStorageERKNS_9formula_tE @714
    _ZN11xlslib_core8CFormulaC2ERNS_12CDataStorageERKNS_9formula_tE @715
    _ZN11xlslib_core8CFormulaD0Ev @716
    _ZN11xlslib_core8CFormulaD1Ev @717
    _ZN11xlslib_core8CFormulaD2Ev @718
    _ZN11xlslib_core8CHPSFdocC1ERNS_12CDataStorageERKNS_10hpsf_doc_tE @719
    _ZN11xlslib_core8CHPSFdocC2ERNS_12CDataStorageERKNS_10hpsf_doc_tE @720
    _ZN11xlslib_core8CHPSFdocD0Ev @721
    _ZN11xlslib_core8CHPSFdocD1Ev @722
    _ZN11xlslib_core8CHPSFdocD2Ev @723
    _ZN11xlslib_core8COleProp12SetNextIndexEi @724
    _ZN11xlslib_core8COleProp13SetChildIndexEi @725
    _ZN11xlslib_core8COleProp13SetStartBlockEi @726
    _ZN11xlslib_core8COleProp14SetCreatedDaysEi @727
    _ZN11xlslib_core8COleProp14SetCreatedSecsEi @728
    _ZN11xlslib_core8COleProp14SetDataPointerEPNS_12CDataStorageE @729
    _ZN11xlslib_core8COleProp15SetModifiedDaysEi @730
    _ZN11xlslib_core8COleProp15SetModifiedSecsEi @731
    _ZN11xlslib_core8COleProp16SetPreviousIndexEi @732
    _ZN11xlslib_core8COleProp4InitEiRKSsPNS_12CDataStorageE @733
    _ZN11xlslib_core8COleProp7SetNameERKSs @734
    _ZN11xlslib_core8COleProp7SetSizeEj @735
    _ZN11xlslib_core8COleProp7SetTypeEh @736
    _ZN11xlslib_core8COleProp8SetColorEh @737
    _ZN11xlslib_core8COleProp8SetIndexEi @738
    _ZN11xlslib_core8COlePropC1EiPKcPNS_12CDataStorageE @739
    _ZN11xlslib_core8COlePropC1EiRKSsPNS_12CDataStorageE @740
    _ZN11xlslib_core8COlePropC1Ev @741
    _ZN11xlslib_core8COlePropC2EiPKcPNS_12CDataStorageE @742
    _ZN11xlslib_core8COlePropC2EiRKSsPNS_12CDataStorageE @743
    _ZN11xlslib_core8COlePropC2Ev @744
    _ZN11xlslib_core8COlePropD1Ev @745
    _ZN11xlslib_core8COlePropD2Ev @746
    _ZN11xlslib_core8CPaletteC1ERNS_12CDataStorageEPKNS_13color_entry_tE @747
    _ZN11xlslib_core8CPaletteC2ERNS_12CDataStorageEPKNS_13color_entry_tE @748
    _ZN11xlslib_core8CPaletteD0Ev @749
    _ZN11xlslib_core8CPaletteD1Ev @750
    _ZN11xlslib_core8CPaletteD2Ev @751
    _ZN11xlslib_core8CWindow1C1ERNS_12CDataStorageERKNS_7window1E @752
    _ZN11xlslib_core8CWindow1C2ERNS_12CDataStorageERKNS_7window1E @753
    _ZN11xlslib_core8CWindow1D0Ev @754
    _ZN11xlslib_core8CWindow1D1Ev @755
    _ZN11xlslib_core8CWindow1D2Ev @756
    _ZN11xlslib_core8CWindow210ClearPagedEv @757
    _ZN11xlslib_core8CWindow211SetSelectedEv @758
    _ZN11xlslib_core8CWindow213ClearSelectedEv @759
    _ZN11xlslib_core8CWindow28SetPagedEv @760
    _ZN11xlslib_core8CWindow2C1ERNS_12CDataStorageEb @761
    _ZN11xlslib_core8CWindow2C2ERNS_12CDataStorageEb @762
    _ZN11xlslib_core8CWindow2D0Ev @763
    _ZN11xlslib_core8CWindow2D1Ev @764
    _ZN11xlslib_core8CWindow2D2Ev @765
    _ZN11xlslib_core8HPSFitem7GetSizeEv @766
    _ZN11xlslib_core8HPSFitem9SetOffsetEj @767
    _ZN11xlslib_core8HPSFitemC1EtRKSs @768
    _ZN11xlslib_core8HPSFitemC1Etb @769
    _ZN11xlslib_core8HPSFitemC1Etj @770
    _ZN11xlslib_core8HPSFitemC1Ett @771
    _ZN11xlslib_core8HPSFitemC1Ety @772
    _ZN11xlslib_core8HPSFitemC2EtRKSs @773
    _ZN11xlslib_core8HPSFitemC2Etb @774
    _ZN11xlslib_core8HPSFitemC2Etj @775
    _ZN11xlslib_core8HPSFitemC2Ett @776
    _ZN11xlslib_core8HPSFitemC2Ety @777
    _ZN11xlslib_core8HPSFitemD1Ev @778
    _ZN11xlslib_core8HPSFitemD2Ev @779
    _ZN11xlslib_core8colors_t8setColorEhhhh @780
    _ZN11xlslib_core8colors_tC1Ev @781
    _ZN11xlslib_core8colors_tC2Ev @782
    _ZN11xlslib_core8colors_tD1Ev @783
    _ZN11xlslib_core8colors_tD2Ev @784
    _ZN11xlslib_core8format_t10UnMarkUsedEv @785
    _ZN11xlslib_core8format_t12format2indexENS_15format_number_tE @786
    _ZN11xlslib_core8format_t8MarkUsedEv @787
    _ZN11xlslib_core8format_t8SetIndexEt @788
    _ZN11xlslib_core8format_tC1ERKS0_ @789
    _ZN11xlslib_core8format_tC1ERNS_14CGlobalRecordsERKSbItSt11char_traitsItESaItEE @790
    _ZN11xlslib_core8format_tC1ERNS_14CGlobalRecordsERKSbIwSt11char_traitsIwESaIwEE @791
    _ZN11xlslib_core8format_tC1ERNS_14CGlobalRecordsERKSs @792
    _ZN11xlslib_core8format_tC2ERKS0_ @793
    _ZN11xlslib_core8format_tC2ERNS_14CGlobalRecordsERKSbItSt11char_traitsItESaItEE @794
    _ZN11xlslib_core8format_tC2ERNS_14CGlobalRecordsERKSbIwSt11char_traitsIwESaIwEE @795
    _ZN11xlslib_core8format_tC2ERNS_14CGlobalRecordsERKSs @796
    _ZN11xlslib_core8format_tD0Ev @797
    _ZN11xlslib_core8format_tD1Ev @798
    _ZN11xlslib_core8format_taSERKS0_ @799
    _ZN11xlslib_core8number_tC1ERNS_14CGlobalRecordsEjjdPNS_4xf_tE @800
    _ZN11xlslib_core8number_tC1ERNS_14CGlobalRecordsEjjiPNS_4xf_tE @801
    _ZN11xlslib_core8number_tC1ERNS_14CGlobalRecordsEjjjPNS_4xf_tE @802
    _ZN11xlslib_core8number_tC2ERNS_14CGlobalRecordsEjjdPNS_4xf_tE @803
    _ZN11xlslib_core8number_tC2ERNS_14CGlobalRecordsEjjiPNS_4xf_tE @804
    _ZN11xlslib_core8number_tC2ERNS_14CGlobalRecordsEjjjPNS_4xf_tE @805
    _ZN11xlslib_core8number_tD0Ev @806
    _ZN11xlslib_core8number_tD1Ev @807
    _ZN11xlslib_core8workbook11tabBarWidthEt @808
    _ZN11xlslib_core8workbook12windPositionEtt @809
    _ZN11xlslib_core8workbook17GetFormulaFactoryEv @810
    _ZN11xlslib_core8workbook4DumpERKSs @811
    _ZN11xlslib_core8workbook4fontERKSs @812
    _ZN11xlslib_core8workbook4fontEh @813
    _ZN11xlslib_core8workbook5sheetERKSbIwSt11char_traitsIwESaIwEE @814
    _ZN11xlslib_core8workbook5sheetERKSs @815
    _ZN11xlslib_core8workbook6formatERKSbIwSt11char_traitsIwESaIwEE @816
    _ZN11xlslib_core8workbook6formatERKSs @817
    _ZN11xlslib_core8workbook7xformatEPNS_6font_tE @818
    _ZN11xlslib_core8workbook7xformatEPNS_6font_tEPNS_8format_tE @819
    _ZN11xlslib_core8workbook7xformatEPNS_8format_tE @820
    _ZN11xlslib_core8workbook7xformatEv @821
    _ZN11xlslib_core8workbook8DumpDataERNS_12CDataStorageE @822
    _ZN11xlslib_core8workbook8GetSheetEt @823
    _ZN11xlslib_core8workbook8firstTabEt @824
    _ZN11xlslib_core8workbook8propertyENS_10property_tERKSs @825
    _ZN11xlslib_core8workbook8setColorEhhhh @826
    _ZN11xlslib_core8workbook8windSizeEtt @827
    _ZN11xlslib_core8workbookC1Ev @828
    _ZN11xlslib_core8workbookC2Ev @829
    _ZN11xlslib_core8workbookD0Ev @830
    _ZN11xlslib_core8workbookD1Ev @831
    _ZN11xlslib_core8workbookD2Ev @832
    _ZN11xlslib_core9CCodePageC1ERNS_12CDataStorageEt @833
    _ZN11xlslib_core9CCodePageC2ERNS_12CDataStorageEt @834
    _ZN11xlslib_core9CCodePageD0Ev @835
    _ZN11xlslib_core9CCodePageD1Ev @836
    _ZN11xlslib_core9CCodePageD2Ev @837
    _ZN11xlslib_core9CContinueC1EPNS_5CUnitEPKhj @838
    _ZN11xlslib_core9CContinueC2EPNS_5CUnitEPKhj @839
    _ZN11xlslib_core9CContinueD0Ev @840
    _ZN11xlslib_core9CContinueD1Ev @841
    _ZN11xlslib_core9CContinueD2Ev @842
    _ZN11xlslib_core9CDateMode15Is_In_1904_ModeEv @843
    _ZN11xlslib_core9CDateModeC1ERNS_12CDataStorageE @844
    _ZN11xlslib_core9CDateModeC2ERNS_12CDataStorageE @845
    _ZN11xlslib_core9CDateModeD0Ev @846
    _ZN11xlslib_core9CDateModeD1Ev @847
    _ZN11xlslib_core9CDateModeD2Ev @848
    _ZN11xlslib_core9HyperLinkC1Ev @849
    _ZN11xlslib_core9HyperLinkD1Ev @850
    _ZN11xlslib_core9boolean_tC1ERNS_14CGlobalRecordsEjjbPNS_4xf_tE @851
    _ZN11xlslib_core9boolean_tC2ERNS_14CGlobalRecordsEjjbPNS_4xf_tE @852
    _ZN11xlslib_core9boolean_tD0Ev @853
    _ZN11xlslib_core9boolean_tD1Ev @854
    _ZN11xlslib_core9formula_tC1ERNS_14CGlobalRecordsEjjPNS_17expression_node_tEbPNS_4xf_tE @855
    _ZN11xlslib_core9formula_tC2ERNS_14CGlobalRecordsEjjPNS_17expression_node_tEbPNS_4xf_tE @856
    _ZN11xlslib_core9formula_tD0Ev @857
    _ZN11xlslib_core9formula_tD1Ev @858
    _ZN11xlslib_core9formula_tD2Ev @859
    _ZN11xlslib_core9worksheet10MakeActiveEv @860
    _ZN11xlslib_core9worksheet10rangegroupEjjjj @861
    _ZN11xlslib_core9worksheet13MakeHyperLinkERNS_12CDataStorageEPNS_9HyperLinkE @862
    _ZN11xlslib_core9worksheet13RowBlocksDumpERNS_12CDataStorageEj @863
    _ZN11xlslib_core9worksheet15GetNumRowBlocksEPNS_14rowblocksize_tE @864
    _ZN11xlslib_core9worksheet16GetRowBlockSizesERNS_14rowblocksize_tE @865
    _ZN11xlslib_core9worksheet19FindCellOrMakeBlankEjj @866
    _ZN11xlslib_core9worksheet26EstimateNumBiffUnitsNeededEv @867
    _ZN11xlslib_core9worksheet26GetFirstLastRowsAndColumnsEPjS1_S1_S1_ @868
    _ZN11xlslib_core9worksheet4noteEjjRKSbIwSt11char_traitsIwESaIwEES6_PNS_4xf_tE @869
    _ZN11xlslib_core9worksheet4noteEjjRKSsS2_PNS_4xf_tE @870
    _ZN11xlslib_core9worksheet5blankEjjPNS_4xf_tE @871
    _ZN11xlslib_core9worksheet5errorEjjNS_9errcode_tEPNS_4xf_tE @872
    _ZN11xlslib_core9worksheet5labelEjjRKSbIwSt11char_traitsIwESaIwEEPNS_4xf_tE @873
    _ZN11xlslib_core9worksheet5labelEjjRKSsPNS_4xf_tE @874
    _ZN11xlslib_core9worksheet5mergeEjjjj @875
    _ZN11xlslib_core9worksheet6numberEjjdNS_15format_number_tEPNS_4xf_tE @876
    _ZN11xlslib_core9worksheet6numberEjjdPNS_4xf_tE @877
    _ZN11xlslib_core9worksheet6numberEjjiPNS_4xf_tE @878
    _ZN11xlslib_core9worksheet6numberEjjjPNS_4xf_tE @879
    _ZN11xlslib_core9worksheet7AddCellEPNS_6cell_tE @880
    _ZN11xlslib_core9worksheet7booleanEjjbPNS_4xf_tE @881
    _ZN11xlslib_core9worksheet7formulaEjjPNS_17expression_node_tEbPNS_4xf_tE @882
    _ZN11xlslib_core9worksheet8DumpDataERNS_12CDataStorageEjj @883
    _ZN11xlslib_core9worksheet8colwidthEjtPNS_4xf_tE @884
    _ZN11xlslib_core9worksheet9hyperLinkEPKNS_6cell_tERKSbIwSt11char_traitsIwESaIwEES9_ @885
    _ZN11xlslib_core9worksheet9hyperLinkEPKNS_6cell_tERKSsS5_ @886
    _ZN11xlslib_core9worksheet9rowheightEjtPNS_4xf_tE @887
    _ZN11xlslib_core9worksheetC1ERNS_14CGlobalRecordsEt @888
    _ZN11xlslib_core9worksheetC2ERNS_14CGlobalRecordsEt @889
    _ZN11xlslib_core9worksheetD0Ev @890
    _ZN11xlslib_core9worksheetD1Ev @891
    _ZN11xlslib_core9worksheetD2Ev @892
    _ZN11xlslib_core9xf_init_tC1ERKS0_ @893
    _ZN11xlslib_core9xf_init_tC1Ev @894
    _ZN11xlslib_core9xf_init_tC2ERKS0_ @895
    _ZN11xlslib_core9xf_init_tC2Ev @896
    _ZN11xlslib_core9xf_init_tD1Ev @897
    _ZN11xlslib_core9xf_init_tD2Ev @898
    _ZN11xlslib_core9xf_init_taSERKS0_ @899
    _ZN11xlslib_core9xf_init_teqERKS0_ @900
    _ZN7Private15write_to_streamIA10_cEENS_27return_from_write_to_streamIT_E11return_typeERK10str_streamRKS3_ @901
    _ZN7Private15write_to_streamIA19_cEENS_27return_from_write_to_streamIT_E11return_typeERK10str_streamRKS3_ @902
    _ZN7Private15write_to_streamIA2_cEENS_27return_from_write_to_streamIT_E11return_typeERK10str_streamRKS3_ @903
    _ZN7Private15write_to_streamIA31_cEENS_27return_from_write_to_streamIT_E11return_typeERK10str_streamRKS3_ @904
    _ZN7Private15write_to_streamIA3_cEENS_27return_from_write_to_streamIT_E11return_typeERK10str_streamRKS3_ @905
    _ZN7Private15write_to_streamIA5_cEENS_27return_from_write_to_streamIT_E11return_typeERK10str_streamRKS3_ @906
    _ZN7Private15write_to_streamIPKcEENS_27return_from_write_to_streamIT_E11return_typeERK10str_streamRKS4_ @907
    _ZN7Private15write_to_streamIiEENS_27return_from_write_to_streamIT_E11return_typeERK10str_streamRKS2_ @908
    _ZN9__gnu_cxx11char_traitsItE2eqERKtS3_ @909
    _ZN9__gnu_cxx11char_traitsItE4copyEPtPKtj @910
    _ZN9__gnu_cxx11char_traitsItE4moveEPtPKtj @911
    _ZN9__gnu_cxx11char_traitsItE6assignERtRKt @912
    _ZN9__gnu_cxx11char_traitsItE6lengthEPKt @913
    _ZN9__gnu_cxx13new_allocatorIN11xlslib_core10CUnitStoreEE10deallocateEPS2_j @914
    _ZN9__gnu_cxx13new_allocatorIN11xlslib_core10CUnitStoreEE7destroyEPS2_ @915
    _ZN9__gnu_cxx13new_allocatorIN11xlslib_core10CUnitStoreEE8allocateEjPKv @916
    _ZN9__gnu_cxx13new_allocatorIN11xlslib_core10CUnitStoreEE9constructEPS2_RKS2_ @917
    _ZN9__gnu_cxx13new_allocatorIN11xlslib_core10CUnitStoreEEC2Ev @918
    _ZN9__gnu_cxx13new_allocatorIN11xlslib_core10CUnitStoreEED2Ev @919
    _ZN9__gnu_cxx13new_allocatorIN11xlslib_core14rowblocksize_tEE10deallocateEPS2_j @920
    _ZN9__gnu_cxx13new_allocatorIN11xlslib_core14rowblocksize_tEE7destroyEPS2_ @921
    _ZN9__gnu_cxx13new_allocatorIN11xlslib_core14rowblocksize_tEE8allocateEjPKv @922
    _ZN9__gnu_cxx13new_allocatorIN11xlslib_core14rowblocksize_tEE9constructEPS2_RKS2_ @923
    _ZN9__gnu_cxx13new_allocatorIN11xlslib_core14rowblocksize_tEEC2Ev @924
    _ZN9__gnu_cxx13new_allocatorIN11xlslib_core14rowblocksize_tEED2Ev @925
    _ZN9__gnu_cxx13new_allocatorIPKN11xlslib_core7label_tEE10deallocateEPS4_j @926
    _ZN9__gnu_cxx13new_allocatorIPKN11xlslib_core7label_tEE7destroyEPS4_ @927
    _ZN9__gnu_cxx13new_allocatorIPKN11xlslib_core7label_tEE8allocateEjPKv @928
    _ZN9__gnu_cxx13new_allocatorIPKN11xlslib_core7label_tEE9constructEPS4_RKS4_ @929
    _ZN9__gnu_cxx13new_allocatorIPKN11xlslib_core7label_tEEC2Ev @930
    _ZN9__gnu_cxx13new_allocatorIPKN11xlslib_core7label_tEED2Ev @931
    _ZN9__gnu_cxx13new_allocatorIPN11xlslib_core11rowheight_tEE7destroyEPS3_ @932
    _ZN9__gnu_cxx13new_allocatorIPN11xlslib_core11rowheight_tEE9constructEPS3_RKS3_ @933
    _ZN9__gnu_cxx13new_allocatorIPN11xlslib_core11rowheight_tEEC2Ev @934
    _ZN9__gnu_cxx13new_allocatorIPN11xlslib_core11rowheight_tEED2Ev @935
    _ZN9__gnu_cxx13new_allocatorIPN11xlslib_core12boundsheet_tEE10deallocateEPS3_j @936
    _ZN9__gnu_cxx13new_allocatorIPN11xlslib_core12boundsheet_tEE7destroyEPS3_ @937
    _ZN9__gnu_cxx13new_allocatorIPN11xlslib_core12boundsheet_tEE8allocateEjPKv @938
    _ZN9__gnu_cxx13new_allocatorIPN11xlslib_core12boundsheet_tEE9constructEPS3_RKS3_ @939
    _ZN9__gnu_cxx13new_allocatorIPN11xlslib_core12boundsheet_tEEC2Ev @940
    _ZN9__gnu_cxx13new_allocatorIPN11xlslib_core12boundsheet_tEED2Ev @941
    _ZN9__gnu_cxx13new_allocatorIPN11xlslib_core4xf_tEE10deallocateEPS3_j @942
    _ZN9__gnu_cxx13new_allocatorIPN11xlslib_core4xf_tEE7destroyEPS3_ @943
    _ZN9__gnu_cxx13new_allocatorIPN11xlslib_core4xf_tEE8allocateEjPKv @944
    _ZN9__gnu_cxx13new_allocatorIPN11xlslib_core4xf_tEE9constructEPS3_RKS3_ @945
    _ZN9__gnu_cxx13new_allocatorIPN11xlslib_core4xf_tEEC2Ev @946
    _ZN9__gnu_cxx13new_allocatorIPN11xlslib_core4xf_tEED2Ev @947
    _ZN9__gnu_cxx13new_allocatorIPN11xlslib_core5CUnitEE10deallocateEPS3_j @948
    _ZN9__gnu_cxx13new_allocatorIPN11xlslib_core5CUnitEE7destroyEPS3_ @949
    _ZN9__gnu_cxx13new_allocatorIPN11xlslib_core5CUnitEE8allocateEjPKv @950
    _ZN9__gnu_cxx13new_allocatorIPN11xlslib_core5CUnitEE9constructEPS3_RKS3_ @951
    _ZN9__gnu_cxx13new_allocatorIPN11xlslib_core5CUnitEEC2Ev @952
    _ZN9__gnu_cxx13new_allocatorIPN11xlslib_core5CUnitEED2Ev @953
    _ZN9__gnu_cxx13new_allocatorIPN11xlslib_core5rangeEE10deallocateEPS3_j @954
    _ZN9__gnu_cxx13new_allocatorIPN11xlslib_core5rangeEE7destroyEPS3_ @955
    _ZN9__gnu_cxx13new_allocatorIPN11xlslib_core5rangeEE8allocateEjPKv @956
    _ZN9__gnu_cxx13new_allocatorIPN11xlslib_core5rangeEE9constructEPS3_RKS3_ @957
    _ZN9__gnu_cxx13new_allocatorIPN11xlslib_core5rangeEEC2Ev @958
    _ZN9__gnu_cxx13new_allocatorIPN11xlslib_core5rangeEED2Ev @959
    _ZN9__gnu_cxx13new_allocatorIPN11xlslib_core6cell_tEE7destroyEPS3_ @960
    _ZN9__gnu_cxx13new_allocatorIPN11xlslib_core6cell_tEE9constructEPS3_RKS3_ @961
    _ZN9__gnu_cxx13new_allocatorIPN11xlslib_core6cell_tEEC2Ev @962
    _ZN9__gnu_cxx13new_allocatorIPN11xlslib_core6cell_tEED2Ev @963
    _ZN9__gnu_cxx13new_allocatorIPN11xlslib_core6font_tEE10deallocateEPS3_j @964
    _ZN9__gnu_cxx13new_allocatorIPN11xlslib_core6font_tEE7destroyEPS3_ @965
    _ZN9__gnu_cxx13new_allocatorIPN11xlslib_core6font_tEE8allocateEjPKv @966
    _ZN9__gnu_cxx13new_allocatorIPN11xlslib_core6font_tEE9constructEPS3_RKS3_ @967
    _ZN9__gnu_cxx13new_allocatorIPN11xlslib_core6font_tEEC2Ev @968
    _ZN9__gnu_cxx13new_allocatorIPN11xlslib_core6font_tEED2Ev @969
    _ZN9__gnu_cxx13new_allocatorIPN11xlslib_core7range_tEE10deallocateEPS3_j @970
    _ZN9__gnu_cxx13new_allocatorIPN11xlslib_core7range_tEE7destroyEPS3_ @971
    _ZN9__gnu_cxx13new_allocatorIPN11xlslib_core7range_tEE8allocateEjPKv @972
    _ZN9__gnu_cxx13new_allocatorIPN11xlslib_core7range_tEE9constructEPS3_RKS3_ @973
    _ZN9__gnu_cxx13new_allocatorIPN11xlslib_core7range_tEEC2Ev @974
    _ZN9__gnu_cxx13new_allocatorIPN11xlslib_core7range_tEED2Ev @975
    _ZN9__gnu_cxx13new_allocatorIPN11xlslib_core7style_tEE10deallocateEPS3_j @976
    _ZN9__gnu_cxx13new_allocatorIPN11xlslib_core7style_tEE7destroyEPS3_ @977
    _ZN9__gnu_cxx13new_allocatorIPN11xlslib_core7style_tEE8allocateEjPKv @978
    _ZN9__gnu_cxx13new_allocatorIPN11xlslib_core7style_tEE9constructEPS3_RKS3_ @979
    _ZN9__gnu_cxx13new_allocatorIPN11xlslib_core7style_tEEC2Ev @980
    _ZN9__gnu_cxx13new_allocatorIPN11xlslib_core7style_tEED2Ev @981
    _ZN9__gnu_cxx13new_allocatorIPN11xlslib_core8COlePropEE10deallocateEPS3_j @982
    _ZN9__gnu_cxx13new_allocatorIPN11xlslib_core8COlePropEE7destroyEPS3_ @983
    _ZN9__gnu_cxx13new_allocatorIPN11xlslib_core8COlePropEE8allocateEjPKv @984
    _ZN9__gnu_cxx13new_allocatorIPN11xlslib_core8COlePropEE9constructEPS3_RKS3_ @985
    _ZN9__gnu_cxx13new_allocatorIPN11xlslib_core8COlePropEEC2Ev @986
    _ZN9__gnu_cxx13new_allocatorIPN11xlslib_core8COlePropEED2Ev @987
    _ZN9__gnu_cxx13new_allocatorIPN11xlslib_core8HPSFitemEE7destroyEPS3_ @988
    _ZN9__gnu_cxx13new_allocatorIPN11xlslib_core8HPSFitemEE9constructEPS3_RKS3_ @989
    _ZN9__gnu_cxx13new_allocatorIPN11xlslib_core8HPSFitemEEC2Ev @990
    _ZN9__gnu_cxx13new_allocatorIPN11xlslib_core8HPSFitemEED2Ev @991
    _ZN9__gnu_cxx13new_allocatorIPN11xlslib_core8format_tEE10deallocateEPS3_j @992
    _ZN9__gnu_cxx13new_allocatorIPN11xlslib_core8format_tEE7destroyEPS3_ @993
    _ZN9__gnu_cxx13new_allocatorIPN11xlslib_core8format_tEE8allocateEjPKv @994
    _ZN9__gnu_cxx13new_allocatorIPN11xlslib_core8format_tEE9constructEPS3_RKS3_ @995
    _ZN9__gnu_cxx13new_allocatorIPN11xlslib_core8format_tEEC2Ev @996
    _ZN9__gnu_cxx13new_allocatorIPN11xlslib_core8format_tEED2Ev @997
    _ZN9__gnu_cxx13new_allocatorIPN11xlslib_core9HyperLinkEE10deallocateEPS3_j @998
    _ZN9__gnu_cxx13new_allocatorIPN11xlslib_core9HyperLinkEE7destroyEPS3_ @999
    _ZN9__gnu_cxx13new_allocatorIPN11xlslib_core9HyperLinkEE8allocateEjPKv @1000
    _ZN9__gnu_cxx13new_allocatorIPN11xlslib_core9HyperLinkEE9constructEPS3_RKS3_ @1001
    _ZN9__gnu_cxx13new_allocatorIPN11xlslib_core9HyperLinkEEC2Ev @1002
    _ZN9__gnu_cxx13new_allocatorIPN11xlslib_core9HyperLinkEED2Ev @1003
    _ZN9__gnu_cxx13new_allocatorIPN11xlslib_core9colinfo_tEE7destroyEPS3_ @1004
    _ZN9__gnu_cxx13new_allocatorIPN11xlslib_core9colinfo_tEE9constructEPS3_RKS3_ @1005
    _ZN9__gnu_cxx13new_allocatorIPN11xlslib_core9colinfo_tEEC2Ev @1006
    _ZN9__gnu_cxx13new_allocatorIPN11xlslib_core9colinfo_tEED2Ev @1007
    _ZN9__gnu_cxx13new_allocatorIPN11xlslib_core9worksheetEE10deallocateEPS3_j @1008
    _ZN9__gnu_cxx13new_allocatorIPN11xlslib_core9worksheetEE7destroyEPS3_ @1009
    _ZN9__gnu_cxx13new_allocatorIPN11xlslib_core9worksheetEE8allocateEjPKv @1010
    _ZN9__gnu_cxx13new_allocatorIPN11xlslib_core9worksheetEE9constructEPS3_RKS3_ @1011
    _ZN9__gnu_cxx13new_allocatorIPN11xlslib_core9worksheetEEC2Ev @1012
    _ZN9__gnu_cxx13new_allocatorIPN11xlslib_core9worksheetEED2Ev @1013
    _ZN9__gnu_cxx13new_allocatorIPSsE7destroyEPS1_ @1014
    _ZN9__gnu_cxx13new_allocatorIPSsE9constructEPS1_RKS1_ @1015
    _ZN9__gnu_cxx13new_allocatorIPSsEC2Ev @1016
    _ZN9__gnu_cxx13new_allocatorIPSsED2Ev @1017
    _ZN9__gnu_cxx13new_allocatorISt10_List_nodeIPSsEE10deallocateEPS3_j @1018
    _ZN9__gnu_cxx13new_allocatorISt10_List_nodeIPSsEE8allocateEjPKv @1019
    _ZN9__gnu_cxx13new_allocatorISt10_List_nodeIPSsEEC2Ev @1020
    _ZN9__gnu_cxx13new_allocatorISt10_List_nodeIPSsEED2Ev @1021
    _ZN9__gnu_cxx13new_allocatorISt13_Rb_tree_nodeIPN11xlslib_core11rowheight_tEEE10deallocateEPS5_j @1022
    _ZN9__gnu_cxx13new_allocatorISt13_Rb_tree_nodeIPN11xlslib_core11rowheight_tEEE8allocateEjPKv @1023
    _ZN9__gnu_cxx13new_allocatorISt13_Rb_tree_nodeIPN11xlslib_core11rowheight_tEEEC2Ev @1024
    _ZN9__gnu_cxx13new_allocatorISt13_Rb_tree_nodeIPN11xlslib_core11rowheight_tEEED2Ev @1025
    _ZN9__gnu_cxx13new_allocatorISt13_Rb_tree_nodeIPN11xlslib_core6cell_tEEE10deallocateEPS5_j @1026
    _ZN9__gnu_cxx13new_allocatorISt13_Rb_tree_nodeIPN11xlslib_core6cell_tEEE8allocateEjPKv @1027
    _ZN9__gnu_cxx13new_allocatorISt13_Rb_tree_nodeIPN11xlslib_core6cell_tEEEC2Ev @1028
    _ZN9__gnu_cxx13new_allocatorISt13_Rb_tree_nodeIPN11xlslib_core6cell_tEEED2Ev @1029
    _ZN9__gnu_cxx13new_allocatorISt13_Rb_tree_nodeIPN11xlslib_core8HPSFitemEEE10deallocateEPS5_j @1030
    _ZN9__gnu_cxx13new_allocatorISt13_Rb_tree_nodeIPN11xlslib_core8HPSFitemEEE8allocateEjPKv @1031
    _ZN9__gnu_cxx13new_allocatorISt13_Rb_tree_nodeIPN11xlslib_core8HPSFitemEEEC2Ev @1032
    _ZN9__gnu_cxx13new_allocatorISt13_Rb_tree_nodeIPN11xlslib_core8HPSFitemEEED2Ev @1033
    _ZN9__gnu_cxx13new_allocatorISt13_Rb_tree_nodeIPN11xlslib_core9colinfo_tEEE10deallocateEPS5_j @1034
    _ZN9__gnu_cxx13new_allocatorISt13_Rb_tree_nodeIPN11xlslib_core9colinfo_tEEE8allocateEjPKv @1035
    _ZN9__gnu_cxx13new_allocatorISt13_Rb_tree_nodeIPN11xlslib_core9colinfo_tEEEC2Ev @1036
    _ZN9__gnu_cxx13new_allocatorISt13_Rb_tree_nodeIPN11xlslib_core9colinfo_tEEED2Ev @1037
    _ZN9__gnu_cxx13new_allocatorISt13_Rb_tree_nodeISt4pairIPN11xlslib_core4xf_tENS3_11borderedXftEEEE10deallocateEPS8_j @1038
    _ZN9__gnu_cxx13new_allocatorISt13_Rb_tree_nodeISt4pairIPN11xlslib_core4xf_tENS3_11borderedXftEEEE8allocateEjPKv @1039
    _ZN9__gnu_cxx13new_allocatorISt13_Rb_tree_nodeISt4pairIPN11xlslib_core4xf_tENS3_11borderedXftEEEEC2Ev @1040
    _ZN9__gnu_cxx13new_allocatorISt13_Rb_tree_nodeISt4pairIPN11xlslib_core4xf_tENS3_11borderedXftEEEED2Ev @1041
    _ZN9__gnu_cxx13new_allocatorISt4pairIPN11xlslib_core4xf_tENS2_11borderedXftEEE7destroyEPS6_ @1042
    _ZN9__gnu_cxx13new_allocatorISt4pairIPN11xlslib_core4xf_tENS2_11borderedXftEEE9constructEPS6_RKS6_ @1043
    _ZN9__gnu_cxx13new_allocatorISt4pairIPN11xlslib_core4xf_tENS2_11borderedXftEEEC2Ev @1044
    _ZN9__gnu_cxx13new_allocatorISt4pairIPN11xlslib_core4xf_tENS2_11borderedXftEEED2Ev @1045
    _ZN9__gnu_cxx13new_allocatorIcE10deallocateEPcj @1046
    _ZN9__gnu_cxx13new_allocatorIcE8allocateEjPKv @1047
    _ZN9__gnu_cxx13new_allocatorIcEC2Ev @1048
    _ZN9__gnu_cxx13new_allocatorIjE10deallocateEPjj @1049
    _ZN9__gnu_cxx13new_allocatorIjE7destroyEPj @1050
    _ZN9__gnu_cxx13new_allocatorIjE8allocateEjPKv @1051
    _ZN9__gnu_cxx13new_allocatorIjE9constructEPjRKj @1052
    _ZN9__gnu_cxx13new_allocatorIjEC2Ev @1053
    _ZN9__gnu_cxx13new_allocatorIjED2Ev @1054
    _ZN9__gnu_cxx13new_allocatorItEC2ERKS1_ @1055
    _ZN9__gnu_cxx13new_allocatorItEC2Ev @1056
    _ZN9__gnu_cxx13new_allocatorItED2Ev @1057
    _ZN9__gnu_cxx17__normal_iteratorIPKN11xlslib_core10CUnitStoreESt6vectorIS2_SaIS2_EEEC1ERKS4_ @1058
    _ZN9__gnu_cxx17__normal_iteratorIPKPKN11xlslib_core7label_tESt6vectorIS4_SaIS4_EEEC1ERKS6_ @1059
    _ZN9__gnu_cxx17__normal_iteratorIPKPKN11xlslib_core7label_tESt6vectorIS4_SaIS4_EEEC1IPS4_EERKNS0_IT_NS_11__enable_ifIXsrSt10__are_sameISD_SC_E7__valueES9_E6__typeEEE @1060
    _ZN9__gnu_cxx17__normal_iteratorIPKPKN11xlslib_core7label_tESt6vectorIS4_SaIS4_EEEppEv @1061
    _ZN9__gnu_cxx17__normal_iteratorIPKPN11xlslib_core12boundsheet_tESt6vectorIS3_SaIS3_EEEC1ERKS5_ @1062
    _ZN9__gnu_cxx17__normal_iteratorIPKPN11xlslib_core4xf_tESt6vectorIS3_SaIS3_EEEC1ERKS5_ @1063
    _ZN9__gnu_cxx17__normal_iteratorIPKPN11xlslib_core5rangeESt6vectorIS3_SaIS3_EEEC1ERKS5_ @1064
    _ZN9__gnu_cxx17__normal_iteratorIPKPN11xlslib_core6font_tESt6vectorIS3_SaIS3_EEEC1ERKS5_ @1065
    _ZN9__gnu_cxx17__normal_iteratorIPKPN11xlslib_core7range_tESt6vectorIS3_SaIS3_EEEC1ERKS5_ @1066
    _ZN9__gnu_cxx17__normal_iteratorIPKPN11xlslib_core7style_tESt6vectorIS3_SaIS3_EEEC1ERKS5_ @1067
    _ZN9__gnu_cxx17__normal_iteratorIPKPN11xlslib_core8COlePropESt6vectorIS3_SaIS3_EEEC1ERKS5_ @1068
    _ZN9__gnu_cxx17__normal_iteratorIPKPN11xlslib_core8format_tESt6vectorIS3_SaIS3_EEEC1ERKS5_ @1069
    _ZN9__gnu_cxx17__normal_iteratorIPKPN11xlslib_core9HyperLinkESt6vectorIS3_SaIS3_EEEC1ERKS5_ @1070
    _ZN9__gnu_cxx17__normal_iteratorIPKPN11xlslib_core9worksheetESt6vectorIS3_SaIS3_EEEC1ERKS5_ @1071
    _ZN9__gnu_cxx17__normal_iteratorIPKcSsEC1ERKS2_ @1072
    _ZN9__gnu_cxx17__normal_iteratorIPKcSsEC1Ev @1073
    _ZN9__gnu_cxx17__normal_iteratorIPKcSsEppEi @1074
    _ZN9__gnu_cxx17__normal_iteratorIPKtSbItSt11char_traitsItESaItEEEC1ERKS2_ @1075
    _ZN9__gnu_cxx17__normal_iteratorIPKtSbItSt11char_traitsItESaItEEEC1Ev @1076
    _ZN9__gnu_cxx17__normal_iteratorIPKtSbItSt11char_traitsItESaItEEEC1IPtEERKNS0_IT_NS_11__enable_ifIXsrSt10__are_sameISA_S9_E7__valueES6_E6__typeEEE @1077
    _ZN9__gnu_cxx17__normal_iteratorIPKtSbItSt11char_traitsItESaItEEEppEi @1078
    _ZN9__gnu_cxx17__normal_iteratorIPKwSbIwSt11char_traitsIwESaIwEEEC1ERKS2_ @1079
    _ZN9__gnu_cxx17__normal_iteratorIPKwSbIwSt11char_traitsIwESaIwEEEC1Ev @1080
    _ZN9__gnu_cxx17__normal_iteratorIPKwSbIwSt11char_traitsIwESaIwEEEppEi @1081
    _ZN9__gnu_cxx17__normal_iteratorIPN11xlslib_core10CUnitStoreESt6vectorIS2_SaIS2_EEEC1ERKS3_ @1082
    _ZN9__gnu_cxx17__normal_iteratorIPN11xlslib_core10CUnitStoreESt6vectorIS2_SaIS2_EEEC1Ev @1083
    _ZN9__gnu_cxx17__normal_iteratorIPN11xlslib_core10CUnitStoreESt6vectorIS2_SaIS2_EEEppEi @1084
    _ZN9__gnu_cxx17__normal_iteratorIPN11xlslib_core10CUnitStoreESt6vectorIS2_SaIS2_EEEppEv @1085
    _ZN9__gnu_cxx17__normal_iteratorIPN11xlslib_core14rowblocksize_tESt6vectorIS2_SaIS2_EEEC1ERKS3_ @1086
    _ZN9__gnu_cxx17__normal_iteratorIPN11xlslib_core14rowblocksize_tESt6vectorIS2_SaIS2_EEEC1Ev @1087
    _ZN9__gnu_cxx17__normal_iteratorIPN11xlslib_core14rowblocksize_tESt6vectorIS2_SaIS2_EEEppEi @1088
    _ZN9__gnu_cxx17__normal_iteratorIPPKN11xlslib_core7label_tESt6vectorIS4_SaIS4_EEEC1ERKS5_ @1089
    _ZN9__gnu_cxx17__normal_iteratorIPPKN11xlslib_core7label_tESt6vectorIS4_SaIS4_EEEC1Ev @1090
    _ZN9__gnu_cxx17__normal_iteratorIPPKN11xlslib_core7label_tESt6vectorIS4_SaIS4_EEEppEv @1091
    _ZN9__gnu_cxx17__normal_iteratorIPPN11xlslib_core12boundsheet_tESt6vectorIS3_SaIS3_EEEC1ERKS4_ @1092
    _ZN9__gnu_cxx17__normal_iteratorIPPN11xlslib_core12boundsheet_tESt6vectorIS3_SaIS3_EEEC1Ev @1093
    _ZN9__gnu_cxx17__normal_iteratorIPPN11xlslib_core12boundsheet_tESt6vectorIS3_SaIS3_EEEmmEv @1094
    _ZN9__gnu_cxx17__normal_iteratorIPPN11xlslib_core12boundsheet_tESt6vectorIS3_SaIS3_EEEppEi @1095
    _ZN9__gnu_cxx17__normal_iteratorIPPN11xlslib_core4xf_tESt6vectorIS3_SaIS3_EEEC1ERKS4_ @1096
    _ZN9__gnu_cxx17__normal_iteratorIPPN11xlslib_core4xf_tESt6vectorIS3_SaIS3_EEEC1Ev @1097
    _ZN9__gnu_cxx17__normal_iteratorIPPN11xlslib_core4xf_tESt6vectorIS3_SaIS3_EEEmmEv @1098
    _ZN9__gnu_cxx17__normal_iteratorIPPN11xlslib_core4xf_tESt6vectorIS3_SaIS3_EEEppEi @1099
    _ZN9__gnu_cxx17__normal_iteratorIPPN11xlslib_core5CUnitESt6vectorIS3_SaIS3_EEEC1ERKS4_ @1100
    _ZN9__gnu_cxx17__normal_iteratorIPPN11xlslib_core5CUnitESt6vectorIS3_SaIS3_EEEmmEi @1101
    _ZN9__gnu_cxx17__normal_iteratorIPPN11xlslib_core5CUnitESt6vectorIS3_SaIS3_EEEppEi @1102
    _ZN9__gnu_cxx17__normal_iteratorIPPN11xlslib_core5rangeESt6vectorIS3_SaIS3_EEEC1ERKS4_ @1103
    _ZN9__gnu_cxx17__normal_iteratorIPPN11xlslib_core5rangeESt6vectorIS3_SaIS3_EEEppEi @1104
    _ZN9__gnu_cxx17__normal_iteratorIPPN11xlslib_core6font_tESt6vectorIS3_SaIS3_EEEC1ERKS4_ @1105
    _ZN9__gnu_cxx17__normal_iteratorIPPN11xlslib_core6font_tESt6vectorIS3_SaIS3_EEEC1Ev @1106
    _ZN9__gnu_cxx17__normal_iteratorIPPN11xlslib_core6font_tESt6vectorIS3_SaIS3_EEEmmEv @1107
    _ZN9__gnu_cxx17__normal_iteratorIPPN11xlslib_core6font_tESt6vectorIS3_SaIS3_EEEppEi @1108
    _ZN9__gnu_cxx17__normal_iteratorIPPN11xlslib_core7range_tESt6vectorIS3_SaIS3_EEEC1ERKS4_ @1109
    _ZN9__gnu_cxx17__normal_iteratorIPPN11xlslib_core7range_tESt6vectorIS3_SaIS3_EEEppEi @1110
    _ZN9__gnu_cxx17__normal_iteratorIPPN11xlslib_core7style_tESt6vectorIS3_SaIS3_EEEC1ERKS4_ @1111
    _ZN9__gnu_cxx17__normal_iteratorIPPN11xlslib_core7style_tESt6vectorIS3_SaIS3_EEEC1Ev @1112
    _ZN9__gnu_cxx17__normal_iteratorIPPN11xlslib_core7style_tESt6vectorIS3_SaIS3_EEEmmEv @1113
    _ZN9__gnu_cxx17__normal_iteratorIPPN11xlslib_core7style_tESt6vectorIS3_SaIS3_EEEppEi @1114
    _ZN9__gnu_cxx17__normal_iteratorIPPN11xlslib_core8COlePropESt6vectorIS3_SaIS3_EEEC1ERKS4_ @1115
    _ZN9__gnu_cxx17__normal_iteratorIPPN11xlslib_core8COlePropESt6vectorIS3_SaIS3_EEEC1Ev @1116
    _ZN9__gnu_cxx17__normal_iteratorIPPN11xlslib_core8COlePropESt6vectorIS3_SaIS3_EEEmmEi @1117
    _ZN9__gnu_cxx17__normal_iteratorIPPN11xlslib_core8COlePropESt6vectorIS3_SaIS3_EEEmmEv @1118
    _ZN9__gnu_cxx17__normal_iteratorIPPN11xlslib_core8COlePropESt6vectorIS3_SaIS3_EEEppEi @1119
    _ZN9__gnu_cxx17__normal_iteratorIPPN11xlslib_core8COlePropESt6vectorIS3_SaIS3_EEEppEv @1120
    _ZN9__gnu_cxx17__normal_iteratorIPPN11xlslib_core8format_tESt6vectorIS3_SaIS3_EEEC1ERKS4_ @1121
    _ZN9__gnu_cxx17__normal_iteratorIPPN11xlslib_core8format_tESt6vectorIS3_SaIS3_EEEC1Ev @1122
    _ZN9__gnu_cxx17__normal_iteratorIPPN11xlslib_core8format_tESt6vectorIS3_SaIS3_EEEmmEv @1123
    _ZN9__gnu_cxx17__normal_iteratorIPPN11xlslib_core8format_tESt6vectorIS3_SaIS3_EEEppEi @1124
    _ZN9__gnu_cxx17__normal_iteratorIPPN11xlslib_core9HyperLinkESt6vectorIS3_SaIS3_EEEC1ERKS4_ @1125
    _ZN9__gnu_cxx17__normal_iteratorIPPN11xlslib_core9HyperLinkESt6vectorIS3_SaIS3_EEEC1Ev @1126
    _ZN9__gnu_cxx17__normal_iteratorIPPN11xlslib_core9HyperLinkESt6vectorIS3_SaIS3_EEEppEi @1127
    _ZN9__gnu_cxx17__normal_iteratorIPPN11xlslib_core9worksheetESt6vectorIS3_SaIS3_EEEC1ERKS4_ @1128
    _ZN9__gnu_cxx17__normal_iteratorIPPN11xlslib_core9worksheetESt6vectorIS3_SaIS3_EEEC1Ev @1129
    _ZN9__gnu_cxx17__normal_iteratorIPPN11xlslib_core9worksheetESt6vectorIS3_SaIS3_EEEppEv @1130
    _ZN9__gnu_cxx17__normal_iteratorIPjSt6vectorIjSaIjEEEC1ERKS1_ @1131
    _ZN9__gnu_cxx17__normal_iteratorIPjSt6vectorIjSaIjEEEC1Ev @1132
    _ZN9__gnu_cxx17__normal_iteratorIPjSt6vectorIjSaIjEEEppEi @1133
    _ZN9__gnu_cxx17__normal_iteratorIPtSbItSt11char_traitsItESaItEEEC1ERKS1_ @1134
    _ZN9__gnu_cxxeqIPKN11xlslib_core10CUnitStoreESt6vectorIS2_SaIS2_EEEEbRKNS_17__normal_iteratorIT_T0_EESD_ @1135
    _ZN9__gnu_cxxeqIPKPKN11xlslib_core7label_tESt6vectorIS4_SaIS4_EEEEbRKNS_17__normal_iteratorIT_T0_EESF_ @1136
    _ZN9__gnu_cxxeqIPKPN11xlslib_core12boundsheet_tESt6vectorIS3_SaIS3_EEEEbRKNS_17__normal_iteratorIT_T0_EESE_ @1137
    _ZN9__gnu_cxxeqIPKPN11xlslib_core4xf_tESt6vectorIS3_SaIS3_EEEEbRKNS_17__normal_iteratorIT_T0_EESE_ @1138
    _ZN9__gnu_cxxeqIPKPN11xlslib_core5rangeESt6vectorIS3_SaIS3_EEEEbRKNS_17__normal_iteratorIT_T0_EESE_ @1139
    _ZN9__gnu_cxxeqIPKPN11xlslib_core6font_tESt6vectorIS3_SaIS3_EEEEbRKNS_17__normal_iteratorIT_T0_EESE_ @1140
    _ZN9__gnu_cxxeqIPKPN11xlslib_core7range_tESt6vectorIS3_SaIS3_EEEEbRKNS_17__normal_iteratorIT_T0_EESE_ @1141
    _ZN9__gnu_cxxeqIPKPN11xlslib_core7style_tESt6vectorIS3_SaIS3_EEEEbRKNS_17__normal_iteratorIT_T0_EESE_ @1142
    _ZN9__gnu_cxxeqIPKPN11xlslib_core8COlePropESt6vectorIS3_SaIS3_EEEEbRKNS_17__normal_iteratorIT_T0_EESE_ @1143
    _ZN9__gnu_cxxeqIPKPN11xlslib_core8format_tESt6vectorIS3_SaIS3_EEEEbRKNS_17__normal_iteratorIT_T0_EESE_ @1144
    _ZN9__gnu_cxxeqIPKPN11xlslib_core9HyperLinkESt6vectorIS3_SaIS3_EEEEbRKNS_17__normal_iteratorIT_T0_EESE_ @1145
    _ZN9__gnu_cxxeqIPKPN11xlslib_core9worksheetESt6vectorIS3_SaIS3_EEEEbRKNS_17__normal_iteratorIT_T0_EESE_ @1146
    _ZN9__gnu_cxxeqIPN11xlslib_core10CUnitStoreESt6vectorIS2_SaIS2_EEEEbRKNS_17__normal_iteratorIT_T0_EESC_ @1147
    _ZN9__gnu_cxxeqIPN11xlslib_core14rowblocksize_tESt6vectorIS2_SaIS2_EEEEbRKNS_17__normal_iteratorIT_T0_EESC_ @1148
    _ZN9__gnu_cxxeqIPPN11xlslib_core8COlePropESt6vectorIS3_SaIS3_EEEEbRKNS_17__normal_iteratorIT_T0_EESD_ @1149
    _ZN9__gnu_cxxeqIPPN11xlslib_core9HyperLinkESt6vectorIS3_SaIS3_EEEEbRKNS_17__normal_iteratorIT_T0_EESD_ @1150
    _ZN9__gnu_cxxltIPPN11xlslib_core8COlePropESt6vectorIS3_SaIS3_EEEEbRKNS_17__normal_iteratorIT_T0_EESD_ @1151
    _ZN9__gnu_cxxltIPPN11xlslib_core9worksheetESt6vectorIS3_SaIS3_EEEEbRKNS_17__normal_iteratorIT_T0_EESD_ @1152
    _ZN9__gnu_cxxmiIPN11xlslib_core10CUnitStoreESt6vectorIS2_SaIS2_EEEENS_17__normal_iteratorIT_T0_E15difference_typeERKSA_SD_ @1153
    _ZN9__gnu_cxxmiIPN11xlslib_core14rowblocksize_tESt6vectorIS2_SaIS2_EEEENS_17__normal_iteratorIT_T0_E15difference_typeERKSA_SD_ @1154
    _ZN9__gnu_cxxmiIPPKN11xlslib_core7label_tESt6vectorIS4_SaIS4_EEEENS_17__normal_iteratorIT_T0_E15difference_typeERKSC_SF_ @1155
    _ZN9__gnu_cxxmiIPPN11xlslib_core12boundsheet_tESt6vectorIS3_SaIS3_EEEENS_17__normal_iteratorIT_T0_E15difference_typeERKSB_SE_ @1156
    _ZN9__gnu_cxxmiIPPN11xlslib_core4xf_tESt6vectorIS3_SaIS3_EEEENS_17__normal_iteratorIT_T0_E15difference_typeERKSB_SE_ @1157
    _ZN9__gnu_cxxmiIPPN11xlslib_core5CUnitESt6vectorIS3_SaIS3_EEEENS_17__normal_iteratorIT_T0_E15difference_typeERKSB_SE_ @1158
    _ZN9__gnu_cxxmiIPPN11xlslib_core5rangeESt6vectorIS3_SaIS3_EEEENS_17__normal_iteratorIT_T0_E15difference_typeERKSB_SE_ @1159
    _ZN9__gnu_cxxmiIPPN11xlslib_core6font_tESt6vectorIS3_SaIS3_EEEENS_17__normal_iteratorIT_T0_E15difference_typeERKSB_SE_ @1160
    _ZN9__gnu_cxxmiIPPN11xlslib_core7range_tESt6vectorIS3_SaIS3_EEEENS_17__normal_iteratorIT_T0_E15difference_typeERKSB_SE_ @1161
    _ZN9__gnu_cxxmiIPPN11xlslib_core7style_tESt6vectorIS3_SaIS3_EEEENS_17__normal_iteratorIT_T0_E15difference_typeERKSB_SE_ @1162
    _ZN9__gnu_cxxmiIPPN11xlslib_core8COlePropESt6vectorIS3_SaIS3_EEEENS_17__normal_iteratorIT_T0_E15difference_typeERKSB_SE_ @1163
    _ZN9__gnu_cxxmiIPPN11xlslib_core8format_tESt6vectorIS3_SaIS3_EEEENS_17__normal_iteratorIT_T0_E15difference_typeERKSB_SE_ @1164
    _ZN9__gnu_cxxmiIPPN11xlslib_core9HyperLinkESt6vectorIS3_SaIS3_EEEENS_17__normal_iteratorIT_T0_E15difference_typeERKSB_SE_ @1165
    _ZN9__gnu_cxxmiIPPN11xlslib_core9worksheetESt6vectorIS3_SaIS3_EEEENS_17__normal_iteratorIT_T0_E15difference_typeERKSB_SE_ @1166
    _ZN9__gnu_cxxmiIPjSt6vectorIjSaIjEEEENS_17__normal_iteratorIT_T0_E15difference_typeERKS8_SB_ @1167
    _ZN9__gnu_cxxneIPKPKN11xlslib_core7label_tESt6vectorIS4_SaIS4_EEEEbRKNS_17__normal_iteratorIT_T0_EESF_ @1168
    _ZN9__gnu_cxxneIPKcSsEEbRKNS_17__normal_iteratorIT_T0_EES8_ @1169
    _ZN9__gnu_cxxneIPKtSbItSt11char_traitsItESaItEEEEbRKNS_17__normal_iteratorIT_T0_EESC_ @1170
    _ZN9__gnu_cxxneIPKwSbIwSt11char_traitsIwESaIwEEEEbRKNS_17__normal_iteratorIT_T0_EESC_ @1171
    _ZN9__gnu_cxxneIPN11xlslib_core10CUnitStoreESt6vectorIS2_SaIS2_EEEEbRKNS_17__normal_iteratorIT_T0_EESC_ @1172
    _ZN9__gnu_cxxneIPPKN11xlslib_core7label_tEPKS4_St6vectorIS4_SaIS4_EEEEbRKNS_17__normal_iteratorIT_T1_EERKNSB_IT0_SD_EE @1173
    _ZN9__gnu_cxxneIPPKN11xlslib_core7label_tESt6vectorIS4_SaIS4_EEEEbRKNS_17__normal_iteratorIT_T0_EESE_ @1174
    _ZN9__gnu_cxxneIPPN11xlslib_core12boundsheet_tESt6vectorIS3_SaIS3_EEEEbRKNS_17__normal_iteratorIT_T0_EESD_ @1175
    _ZN9__gnu_cxxneIPPN11xlslib_core4xf_tESt6vectorIS3_SaIS3_EEEEbRKNS_17__normal_iteratorIT_T0_EESD_ @1176
    _ZN9__gnu_cxxneIPPN11xlslib_core5CUnitESt6vectorIS3_SaIS3_EEEEbRKNS_17__normal_iteratorIT_T0_EESD_ @1177
    _ZN9__gnu_cxxneIPPN11xlslib_core5rangeESt6vectorIS3_SaIS3_EEEEbRKNS_17__normal_iteratorIT_T0_EESD_ @1178
    _ZN9__gnu_cxxneIPPN11xlslib_core6font_tESt6vectorIS3_SaIS3_EEEEbRKNS_17__normal_iteratorIT_T0_EESD_ @1179
    _ZN9__gnu_cxxneIPPN11xlslib_core7range_tESt6vectorIS3_SaIS3_EEEEbRKNS_17__normal_iteratorIT_T0_EESD_ @1180
    _ZN9__gnu_cxxneIPPN11xlslib_core7style_tESt6vectorIS3_SaIS3_EEEEbRKNS_17__normal_iteratorIT_T0_EESD_ @1181
    _ZN9__gnu_cxxneIPPN11xlslib_core8COlePropESt6vectorIS3_SaIS3_EEEEbRKNS_17__normal_iteratorIT_T0_EESD_ @1182
    _ZN9__gnu_cxxneIPPN11xlslib_core8format_tESt6vectorIS3_SaIS3_EEEEbRKNS_17__normal_iteratorIT_T0_EESD_ @1183
    _ZN9__gnu_cxxneIPPN11xlslib_core9HyperLinkESt6vectorIS3_SaIS3_EEEEbRKNS_17__normal_iteratorIT_T0_EESD_ @1184
    _ZN9__gnu_cxxneIPjSt6vectorIjSaIjEEEEbRKNS_17__normal_iteratorIT_T0_EESA_ @1185
    _ZNK10str_stream17underlying_streamEv @1186
    _ZNK10str_stream18recalculate_stringEv @1187
    _ZNK10str_streamcvSsEv @1188
    _ZNK11xlslib_core10CUnitStore11GetDataSizeEv @1189
    _ZNK11xlslib_core10CUnitStore7GetSizeEv @1190
    _ZNK11xlslib_core10hpsf_doc_t7GetDataERNS_12CDataStorageE @1191
    _ZNK11xlslib_core10hpsf_doc_t7GetSizeEv @1192
    _ZNK11xlslib_core10insertsortclEPNS_6cell_tES2_ @1193
    _ZNK11xlslib_core11colinfosortclERKPNS_9colinfo_tES4_ @1194
    _ZNK11xlslib_core11insertsort2clEPNS_8HPSFitemES2_ @1195
    _ZNK11xlslib_core11rowheight_t5GetXFEv @1196
    _ZNK11xlslib_core12CDataStorage11GetDataSizeEv @1197
    _ZNK11xlslib_core12boundsheet_t10IsEx4macroEv @1198
    _ZNK11xlslib_core12boundsheet_t10IsVBModuleEv @1199
    _ZNK11xlslib_core12boundsheet_t12GetSheetNameEv @1200
    _ZNK11xlslib_core12boundsheet_t12GetStreamPosEv @1201
    _ZNK11xlslib_core12boundsheet_t12IsVeryHiddenEv @1202
    _ZNK11xlslib_core12boundsheet_t7IsChartEv @1203
    _ZNK11xlslib_core12boundsheet_t8IsHiddenEv @1204
    _ZNK11xlslib_core12boundsheet_t9IsVisibleEv @1205
    _ZNK11xlslib_core13rowheightsortclERKPNS_11rowheight_tES4_ @1206
    _ZNK11xlslib_core14CGlobalRecords12GetDefaultXFEv @1207
    _ZNK11xlslib_core14CGlobalRecords14GetDefaultFontEv @1208
    _ZNK11xlslib_core14CGlobalRecords7fontdupEh @1209
    _ZNK11xlslib_core15unary_op_node_t17GetNumberOfChildsEv @1210
    _ZNK11xlslib_core15unary_op_node_t7GetSizeEb @1211
    _ZNK11xlslib_core15unary_op_node_t8DumpDataERNS_5CUnitEb @1212
    _ZNK11xlslib_core15unary_op_node_t8GetChildEt @1213
    _ZNK11xlslib_core16binary_op_node_t17GetNumberOfChildsEv @1214
    _ZNK11xlslib_core16binary_op_node_t7GetSizeEb @1215
    _ZNK11xlslib_core16binary_op_node_t8DumpDataERNS_5CUnitEb @1216
    _ZNK11xlslib_core16binary_op_node_t8GetChildEt @1217
    _ZNK11xlslib_core17cell_deref_node_t17GetResultEstimateERNS_26estimated_formula_result_tE @1218
    _ZNK11xlslib_core17cell_deref_node_t7GetSizeEb @1219
    _ZNK11xlslib_core17cell_deref_node_t8DumpDataERNS_5CUnitEb @1220
    _ZNK11xlslib_core17expression_node_t17GetNumberOfChildsEv @1221
    _ZNK11xlslib_core17expression_node_t17GetResultEstimateERNS_26estimated_formula_result_tE @1222
    _ZNK11xlslib_core17expression_node_t7GetSizeEb @1223
    _ZNK11xlslib_core17expression_node_t8DumpDataERNS_5CUnitEb @1224
    _ZNK11xlslib_core17expression_node_t8GetChildEt @1225
    _ZNK11xlslib_core17n_ary_func_node_t17GetNumberOfChildsEv @1226
    _ZNK11xlslib_core17n_ary_func_node_t8GetChildEt @1227
    _ZNK11xlslib_core17text_value_node_t17GetResultEstimateERNS_26estimated_formula_result_tE @1228
    _ZNK11xlslib_core17text_value_node_t7GetSizeEb @1229
    _ZNK11xlslib_core17text_value_node_t8DumpDataERNS_5CUnitEb @1230
    _ZNK11xlslib_core17unary_func_node_t17GetNumberOfChildsEv @1231
    _ZNK11xlslib_core17unary_func_node_t8GetChildEt @1232
    _ZNK11xlslib_core18binary_func_node_t17GetNumberOfChildsEv @1233
    _ZNK11xlslib_core18binary_func_node_t8GetChildEt @1234
    _ZNK11xlslib_core18error_value_node_t17GetResultEstimateERNS_26estimated_formula_result_tE @1235
    _ZNK11xlslib_core18error_value_node_t7GetSizeEb @1236
    _ZNK11xlslib_core18error_value_node_t8DumpDataERNS_5CUnitEb @1237
    _ZNK11xlslib_core18float_value_node_t17GetResultEstimateERNS_26estimated_formula_result_tE @1238
    _ZNK11xlslib_core18float_value_node_t7GetSizeEb @1239
    _ZNK11xlslib_core18float_value_node_t8DumpDataERNS_5CUnitEb @1240
    _ZNK11xlslib_core18missing_arg_node_t17GetResultEstimateERNS_26estimated_formula_result_tE @1241
    _ZNK11xlslib_core18missing_arg_node_t7GetSizeEb @1242
    _ZNK11xlslib_core18missing_arg_node_t8DumpDataERNS_5CUnitEb @1243
    _ZNK11xlslib_core19function_basenode_t17GetResultEstimateERNS_26estimated_formula_result_tE @1244
    _ZNK11xlslib_core19function_basenode_t7GetSizeEb @1245
    _ZNK11xlslib_core19function_basenode_t8DumpDataERNS_5CUnitEb @1246
    _ZNK11xlslib_core19operator_basenode_t17GetResultEstimateERNS_26estimated_formula_result_tE @1247
    _ZNK11xlslib_core19userdef_func_node_t17GetResultEstimateERNS_26estimated_formula_result_tE @1248
    _ZNK11xlslib_core19userdef_func_node_t7GetSizeEb @1249
    _ZNK11xlslib_core19userdef_func_node_t8DumpDataERNS_5CUnitEb @1250
    _ZNK11xlslib_core20boolean_value_node_t17GetResultEstimateERNS_26estimated_formula_result_tE @1251
    _ZNK11xlslib_core20boolean_value_node_t7GetSizeEb @1252
    _ZNK11xlslib_core20boolean_value_node_t8DumpDataERNS_5CUnitEb @1253
    _ZNK11xlslib_core20integer_value_node_t17GetResultEstimateERNS_26estimated_formula_result_tE @1254
    _ZNK11xlslib_core20integer_value_node_t7GetSizeEb @1255
    _ZNK11xlslib_core20integer_value_node_t8DumpDataERNS_5CUnitEb @1256
    _ZNK11xlslib_core21cellarea_deref_node_t17GetResultEstimateERNS_26estimated_formula_result_tE @1257
    _ZNK11xlslib_core21cellarea_deref_node_t17upper_left_cornerEv @1258
    _ZNK11xlslib_core21cellarea_deref_node_t7GetSizeEb @1259
    _ZNK11xlslib_core21cellarea_deref_node_t8DumpDataERNS_5CUnitEb @1260
    _ZNK11xlslib_core26estimated_formula_result_t14GetOptionFlagsEv @1261
    _ZNK11xlslib_core26estimated_formula_result_t14GetStringValueEv @1262
    _ZNK11xlslib_core26estimated_formula_result_t15GetEncodedValueEv @1263
    _ZNK11xlslib_core26estimated_formula_result_t20EncodedValueIsStringEv @1264
    _ZNK11xlslib_core4xf_t11DescriptionEv @1265
    _ZNK11xlslib_core4xf_t11GetXFshadowEv @1266
    _ZNK11xlslib_core4xf_t12GetFillStyleEv @1267
    _ZNK11xlslib_core4xf_t12GetFontIndexEv @1268
    _ZNK11xlslib_core4xf_t14GetBorderStyleENS_13border_side_tE @1269
    _ZNK11xlslib_core4xf_t14GetFormatIndexEv @1270
    _ZNK11xlslib_core4xf_t14GetParentIndexEv @1271
    _ZNK11xlslib_core4xf_t17GetBorderColorIdxENS_13border_side_tE @1272
    _ZNK11xlslib_core4xf_t17GetFillBGColorIdxEv @1273
    _ZNK11xlslib_core4xf_t17GetFillFGColorIdxEv @1274
    _ZNK11xlslib_core4xf_t17GetTxtOrientationEv @1275
    _ZNK11xlslib_core4xf_t5UsageEv @1276
    _ZNK11xlslib_core4xf_t6IsCellEv @1277
    _ZNK11xlslib_core4xf_t6IsWrapEv @1278
    _ZNK11xlslib_core4xf_t7GetFontEv @1279
    _ZNK11xlslib_core4xf_t8GetFlagsEv @1280
    _ZNK11xlslib_core4xf_t8GetIndexEv @1281
    _ZNK11xlslib_core4xf_t8IsHiddenEv @1282
    _ZNK11xlslib_core4xf_t8IsLockedEv @1283
    _ZNK11xlslib_core4xf_t9GetFormatEv @1284
    _ZNK11xlslib_core4xf_t9GetHAlignEv @1285
    _ZNK11xlslib_core4xf_t9GetIndentEv @1286
    _ZNK11xlslib_core4xf_t9GetParentEv @1287
    _ZNK11xlslib_core4xf_t9GetVAlignEv @1288
    _ZNK11xlslib_core5CUnit11GetDataSizeEv @1289
    _ZNK11xlslib_core5CUnit13GetValue8FromEPhj @1290
    _ZNK11xlslib_core5CUnit14GetValue16FromEPtj @1291
    _ZNK11xlslib_core5CUnit14GetValue32FromEPjj @1292
    _ZNK11xlslib_core5CUnit16AlreadyContinuedEv @1293
    _ZNK11xlslib_core5CUnit17BackPatchingLevelEv @1294
    _ZNK11xlslib_core5CUnit7GetSizeEv @1295
    _ZNK11xlslib_core5CUnit8GetIndexEv @1296
    _ZNK11xlslib_core5CUnit9GetBufferEv @1297
    _ZNK11xlslib_core5CUnitixEj @1298
    _ZNK11xlslib_core5err_t6GetErrEv @1299
    _ZNK11xlslib_core5err_t7GetDataERNS_12CDataStorageE @1300
    _ZNK11xlslib_core5err_t7GetSizeEv @1301
    _ZNK11xlslib_core6cell_t10GetXFIndexEv @1302
    _ZNK11xlslib_core6cell_t16GetGlobalRecordsEv @1303
    _ZNK11xlslib_core6cell_t5GetXFEv @1304
    _ZNK11xlslib_core6cell_t6GetColEv @1305
    _ZNK11xlslib_core6cell_t6GetRowEv @1306
    _ZNK11xlslib_core6font_t10GetCharsetEv @1307
    _ZNK11xlslib_core6font_t10GetOutlineEv @1308
    _ZNK11xlslib_core6font_t11GetColorIdxEv @1309
    _ZNK11xlslib_core6font_t12GetBoldStyleEv @1310
    _ZNK11xlslib_core6font_t12GetStrikeoutEv @1311
    _ZNK11xlslib_core6font_t13GetAttributesEv @1312
    _ZNK11xlslib_core6font_t14GetScriptStyleEv @1313
    _ZNK11xlslib_core6font_t16GetGlobalRecordsEv @1314
    _ZNK11xlslib_core6font_t17GetUnderlineStyleEv @1315
    _ZNK11xlslib_core6font_t5UsageEv @1316
    _ZNK11xlslib_core6font_t7GetNameEv @1317
    _ZNK11xlslib_core6font_t8GetIndexEv @1318
    _ZNK11xlslib_core6font_t9GetFamilyEv @1319
    _ZNK11xlslib_core6font_t9GetHeightEv @1320
    _ZNK11xlslib_core6font_t9GetItalicEv @1321
    _ZNK11xlslib_core6font_t9GetShadowEv @1322
    _ZNK11xlslib_core6note_t7GetDataERNS_12CDataStorageE @1323
    _ZNK11xlslib_core6note_t7GetSizeEv @1324
    _ZNK11xlslib_core6note_t9GetAuthorEv @1325
    _ZNK11xlslib_core7CRecord13GetRecordTypeEv @1326
    _ZNK11xlslib_core7CRecord15GetRecordLengthEv @1327
    _ZNK11xlslib_core7CRecord17GetRecordDataSizeEv @1328
    _ZNK11xlslib_core7CRecord19GetRecordDataBufferEv @1329
    _ZNK11xlslib_core7blank_t7GetDataERNS_12CDataStorageE @1330
    _ZNK11xlslib_core7blank_t7GetSizeEv @1331
    _ZNK11xlslib_core7label_t11GetStrLabelEv @1332
    _ZNK11xlslib_core7label_t7GetDataERNS_12CDataStorageE @1333
    _ZNK11xlslib_core7label_t7GetSizeEv @1334
    _ZNK11xlslib_core7label_t8GetInSSTEv @1335
    _ZNK11xlslib_core7window114GetActiveSheetEv @1336
    _ZNK11xlslib_core8COleProp12GetNextIndexEv @1337
    _ZNK11xlslib_core8COleProp13GetChildIndexEv @1338
    _ZNK11xlslib_core8COleProp13GetStartBlockEv @1339
    _ZNK11xlslib_core8COleProp14GetCreatedDaysEv @1340
    _ZNK11xlslib_core8COleProp14GetCreatedSecsEv @1341
    _ZNK11xlslib_core8COleProp14GetDataPointerEv @1342
    _ZNK11xlslib_core8COleProp15GetModifiedDaysEv @1343
    _ZNK11xlslib_core8COleProp15GetModifiedSecsEv @1344
    _ZNK11xlslib_core8COleProp16GetPreviousIndexEv @1345
    _ZNK11xlslib_core8COleProp7GetNameEv @1346
    _ZNK11xlslib_core8COleProp7GetSizeEv @1347
    _ZNK11xlslib_core8COleProp7GetTypeEv @1348
    _ZNK11xlslib_core8COleProp8GetColorEv @1349
    _ZNK11xlslib_core8COleProp8GetIndexEv @1350
    _ZNK11xlslib_core8HPSFitem10GetVariantEv @1351
    _ZNK11xlslib_core8HPSFitem8GetValueEv @1352
    _ZNK11xlslib_core8HPSFitem9GetPropIDEv @1353
    _ZNK11xlslib_core8colors_t7GetDataERNS_12CDataStorageE @1354
    _ZNK11xlslib_core8format_t12GetFormatStrEv @1355
    _ZNK11xlslib_core8format_t5UsageEv @1356
    _ZNK11xlslib_core8format_t8GetIndexEv @1357
    _ZNK11xlslib_core8number_t11GetIsDoubleEv @1358
    _ZNK11xlslib_core8number_t6GetIntEv @1359
    _ZNK11xlslib_core8number_t7GetDataERNS_12CDataStorageE @1360
    _ZNK11xlslib_core8number_t7GetSizeEv @1361
    _ZNK11xlslib_core8number_t9GetDoubleEv @1362
    _ZNK11xlslib_core8xfSorterclERKSt4pairIPNS_4xf_tENS_11borderedXftEES7_ @1363
    _ZNK11xlslib_core9boolean_t10GetBooleanEv @1364
    _ZNK11xlslib_core9boolean_t7GetDataERNS_12CDataStorageE @1365
    _ZNK11xlslib_core9boolean_t7GetSizeEv @1366
    _ZNK11xlslib_core9formula_t17GetResultEstimateERNS_26estimated_formula_result_tE @1367
    _ZNK11xlslib_core9formula_t6GetASTEv @1368
    _ZNK11xlslib_core9formula_t7GetDataERNS_12CDataStorageE @1369
    _ZNK11xlslib_core9formula_t7GetSizeEv @1370
    _ZNK11xlslib_core9worksheet8FindCellEjj @1371
    _ZNK9__gnu_cxx13new_allocatorIN11xlslib_core10CUnitStoreEE8max_sizeEv @1372
    _ZNK9__gnu_cxx13new_allocatorIN11xlslib_core14rowblocksize_tEE8max_sizeEv @1373
    _ZNK9__gnu_cxx13new_allocatorIPKN11xlslib_core7label_tEE8max_sizeEv @1374
    _ZNK9__gnu_cxx13new_allocatorIPN11xlslib_core12boundsheet_tEE8max_sizeEv @1375
    _ZNK9__gnu_cxx13new_allocatorIPN11xlslib_core4xf_tEE8max_sizeEv @1376
    _ZNK9__gnu_cxx13new_allocatorIPN11xlslib_core5CUnitEE8max_sizeEv @1377
    _ZNK9__gnu_cxx13new_allocatorIPN11xlslib_core5rangeEE8max_sizeEv @1378
    _ZNK9__gnu_cxx13new_allocatorIPN11xlslib_core6font_tEE8max_sizeEv @1379
    _ZNK9__gnu_cxx13new_allocatorIPN11xlslib_core7range_tEE8max_sizeEv @1380
    _ZNK9__gnu_cxx13new_allocatorIPN11xlslib_core7style_tEE8max_sizeEv @1381
    _ZNK9__gnu_cxx13new_allocatorIPN11xlslib_core8COlePropEE8max_sizeEv @1382
    _ZNK9__gnu_cxx13new_allocatorIPN11xlslib_core8format_tEE8max_sizeEv @1383
    _ZNK9__gnu_cxx13new_allocatorIPN11xlslib_core9HyperLinkEE8max_sizeEv @1384
    _ZNK9__gnu_cxx13new_allocatorIPN11xlslib_core9worksheetEE8max_sizeEv @1385
    _ZNK9__gnu_cxx13new_allocatorISt10_List_nodeIPSsEE8max_sizeEv @1386
    _ZNK9__gnu_cxx13new_allocatorISt13_Rb_tree_nodeIPN11xlslib_core11rowheight_tEEE8max_sizeEv @1387
    _ZNK9__gnu_cxx13new_allocatorISt13_Rb_tree_nodeIPN11xlslib_core6cell_tEEE8max_sizeEv @1388
    _ZNK9__gnu_cxx13new_allocatorISt13_Rb_tree_nodeIPN11xlslib_core8HPSFitemEEE8max_sizeEv @1389
    _ZNK9__gnu_cxx13new_allocatorISt13_Rb_tree_nodeIPN11xlslib_core9colinfo_tEEE8max_sizeEv @1390
    _ZNK9__gnu_cxx13new_allocatorISt13_Rb_tree_nodeISt4pairIPN11xlslib_core4xf_tENS3_11borderedXftEEEE8max_sizeEv @1391
    _ZNK9__gnu_cxx13new_allocatorIcE8max_sizeEv @1392
    _ZNK9__gnu_cxx13new_allocatorIjE8max_sizeEv @1393
    _ZNK9__gnu_cxx17__normal_iteratorIPKN11xlslib_core10CUnitStoreESt6vectorIS2_SaIS2_EEE4baseEv @1394
    _ZNK9__gnu_cxx17__normal_iteratorIPKPKN11xlslib_core7label_tESt6vectorIS4_SaIS4_EEE4baseEv @1395
    _ZNK9__gnu_cxx17__normal_iteratorIPKPKN11xlslib_core7label_tESt6vectorIS4_SaIS4_EEEdeEv @1396
    _ZNK9__gnu_cxx17__normal_iteratorIPKPN11xlslib_core12boundsheet_tESt6vectorIS3_SaIS3_EEE4baseEv @1397
    _ZNK9__gnu_cxx17__normal_iteratorIPKPN11xlslib_core4xf_tESt6vectorIS3_SaIS3_EEE4baseEv @1398
    _ZNK9__gnu_cxx17__normal_iteratorIPKPN11xlslib_core5rangeESt6vectorIS3_SaIS3_EEE4baseEv @1399
    _ZNK9__gnu_cxx17__normal_iteratorIPKPN11xlslib_core6font_tESt6vectorIS3_SaIS3_EEE4baseEv @1400
    _ZNK9__gnu_cxx17__normal_iteratorIPKPN11xlslib_core6font_tESt6vectorIS3_SaIS3_EEEdeEv @1401
    _ZNK9__gnu_cxx17__normal_iteratorIPKPN11xlslib_core7range_tESt6vectorIS3_SaIS3_EEE4baseEv @1402
    _ZNK9__gnu_cxx17__normal_iteratorIPKPN11xlslib_core7style_tESt6vectorIS3_SaIS3_EEE4baseEv @1403
    _ZNK9__gnu_cxx17__normal_iteratorIPKPN11xlslib_core8COlePropESt6vectorIS3_SaIS3_EEE4baseEv @1404
    _ZNK9__gnu_cxx17__normal_iteratorIPKPN11xlslib_core8format_tESt6vectorIS3_SaIS3_EEE4baseEv @1405
    _ZNK9__gnu_cxx17__normal_iteratorIPKPN11xlslib_core9HyperLinkESt6vectorIS3_SaIS3_EEE4baseEv @1406
    _ZNK9__gnu_cxx17__normal_iteratorIPKPN11xlslib_core9worksheetESt6vectorIS3_SaIS3_EEE4baseEv @1407
    _ZNK9__gnu_cxx17__normal_iteratorIPKcSsE4baseEv @1408
    _ZNK9__gnu_cxx17__normal_iteratorIPKcSsEdeEv @1409
    _ZNK9__gnu_cxx17__normal_iteratorIPKtSbItSt11char_traitsItESaItEEE4baseEv @1410
    _ZNK9__gnu_cxx17__normal_iteratorIPKtSbItSt11char_traitsItESaItEEEdeEv @1411
    _ZNK9__gnu_cxx17__normal_iteratorIPKwSbIwSt11char_traitsIwESaIwEEE4baseEv @1412
    _ZNK9__gnu_cxx17__normal_iteratorIPKwSbIwSt11char_traitsIwESaIwEEEdeEv @1413
    _ZNK9__gnu_cxx17__normal_iteratorIPN11xlslib_core10CUnitStoreESt6vectorIS2_SaIS2_EEE4baseEv @1414
    _ZNK9__gnu_cxx17__normal_iteratorIPN11xlslib_core10CUnitStoreESt6vectorIS2_SaIS2_EEEdeEv @1415
    _ZNK9__gnu_cxx17__normal_iteratorIPN11xlslib_core10CUnitStoreESt6vectorIS2_SaIS2_EEEptEv @1416
    _ZNK9__gnu_cxx17__normal_iteratorIPN11xlslib_core14rowblocksize_tESt6vectorIS2_SaIS2_EEE4baseEv @1417
    _ZNK9__gnu_cxx17__normal_iteratorIPN11xlslib_core14rowblocksize_tESt6vectorIS2_SaIS2_EEEdeEv @1418
    _ZNK9__gnu_cxx17__normal_iteratorIPPKN11xlslib_core7label_tESt6vectorIS4_SaIS4_EEE4baseEv @1419
    _ZNK9__gnu_cxx17__normal_iteratorIPPKN11xlslib_core7label_tESt6vectorIS4_SaIS4_EEEdeEv @1420
    _ZNK9__gnu_cxx17__normal_iteratorIPPKN11xlslib_core7label_tESt6vectorIS4_SaIS4_EEEplERKi @1421
    _ZNK9__gnu_cxx17__normal_iteratorIPPN11xlslib_core12boundsheet_tESt6vectorIS3_SaIS3_EEE4baseEv @1422
    _ZNK9__gnu_cxx17__normal_iteratorIPPN11xlslib_core12boundsheet_tESt6vectorIS3_SaIS3_EEEdeEv @1423
    _ZNK9__gnu_cxx17__normal_iteratorIPPN11xlslib_core4xf_tESt6vectorIS3_SaIS3_EEE4baseEv @1424
    _ZNK9__gnu_cxx17__normal_iteratorIPPN11xlslib_core4xf_tESt6vectorIS3_SaIS3_EEEdeEv @1425
    _ZNK9__gnu_cxx17__normal_iteratorIPPN11xlslib_core5CUnitESt6vectorIS3_SaIS3_EEE4baseEv @1426
    _ZNK9__gnu_cxx17__normal_iteratorIPPN11xlslib_core5CUnitESt6vectorIS3_SaIS3_EEEdeEv @1427
    _ZNK9__gnu_cxx17__normal_iteratorIPPN11xlslib_core5CUnitESt6vectorIS3_SaIS3_EEEplERKi @1428
    _ZNK9__gnu_cxx17__normal_iteratorIPPN11xlslib_core5rangeESt6vectorIS3_SaIS3_EEE4baseEv @1429
    _ZNK9__gnu_cxx17__normal_iteratorIPPN11xlslib_core5rangeESt6vectorIS3_SaIS3_EEEdeEv @1430
    _ZNK9__gnu_cxx17__normal_iteratorIPPN11xlslib_core6font_tESt6vectorIS3_SaIS3_EEE4baseEv @1431
    _ZNK9__gnu_cxx17__normal_iteratorIPPN11xlslib_core6font_tESt6vectorIS3_SaIS3_EEEdeEv @1432
    _ZNK9__gnu_cxx17__normal_iteratorIPPN11xlslib_core7range_tESt6vectorIS3_SaIS3_EEE4baseEv @1433
    _ZNK9__gnu_cxx17__normal_iteratorIPPN11xlslib_core7range_tESt6vectorIS3_SaIS3_EEEdeEv @1434
    _ZNK9__gnu_cxx17__normal_iteratorIPPN11xlslib_core7style_tESt6vectorIS3_SaIS3_EEE4baseEv @1435
    _ZNK9__gnu_cxx17__normal_iteratorIPPN11xlslib_core7style_tESt6vectorIS3_SaIS3_EEEdeEv @1436
    _ZNK9__gnu_cxx17__normal_iteratorIPPN11xlslib_core8COlePropESt6vectorIS3_SaIS3_EEE4baseEv @1437
    _ZNK9__gnu_cxx17__normal_iteratorIPPN11xlslib_core8COlePropESt6vectorIS3_SaIS3_EEEdeEv @1438
    _ZNK9__gnu_cxx17__normal_iteratorIPPN11xlslib_core8COlePropESt6vectorIS3_SaIS3_EEEmiERKi @1439
    _ZNK9__gnu_cxx17__normal_iteratorIPPN11xlslib_core8COlePropESt6vectorIS3_SaIS3_EEEplERKi @1440
    _ZNK9__gnu_cxx17__normal_iteratorIPPN11xlslib_core8format_tESt6vectorIS3_SaIS3_EEE4baseEv @1441
    _ZNK9__gnu_cxx17__normal_iteratorIPPN11xlslib_core8format_tESt6vectorIS3_SaIS3_EEEdeEv @1442
    _ZNK9__gnu_cxx17__normal_iteratorIPPN11xlslib_core9HyperLinkESt6vectorIS3_SaIS3_EEE4baseEv @1443
    _ZNK9__gnu_cxx17__normal_iteratorIPPN11xlslib_core9HyperLinkESt6vectorIS3_SaIS3_EEEdeEv @1444
    _ZNK9__gnu_cxx17__normal_iteratorIPPN11xlslib_core9worksheetESt6vectorIS3_SaIS3_EEE4baseEv @1445
    _ZNK9__gnu_cxx17__normal_iteratorIPPN11xlslib_core9worksheetESt6vectorIS3_SaIS3_EEEdeEv @1446
    _ZNK9__gnu_cxx17__normal_iteratorIPPN11xlslib_core9worksheetESt6vectorIS3_SaIS3_EEEmiERKi @1447
    _ZNK9__gnu_cxx17__normal_iteratorIPjSt6vectorIjSaIjEEE4baseEv @1448
    _ZNK9__gnu_cxx17__normal_iteratorIPjSt6vectorIjSaIjEEEdeEv @1449
    _ZNK9__gnu_cxx17__normal_iteratorIPtSbItSt11char_traitsItESaItEEE4baseEv @1450
    _ZNKSbItSt11char_traitsItESaItEE11_M_disjunctEPKt @1451
    _ZNKSbItSt11char_traitsItESaItEE13get_allocatorEv @1452
    _ZNKSbItSt11char_traitsItESaItEE15_M_check_lengthEjjPKc @1453
    _ZNKSbItSt11char_traitsItESaItEE3endEv @1454
    _ZNKSbItSt11char_traitsItESaItEE4_Rep12_M_is_leakedEv @1455
    _ZNKSbItSt11char_traitsItESaItEE4_Rep12_M_is_sharedEv @1456
    _ZNKSbItSt11char_traitsItESaItEE4sizeEv @1457
    _ZNKSbItSt11char_traitsItESaItEE5beginEv @1458
    _ZNKSbItSt11char_traitsItESaItEE6_M_repEv @1459
    _ZNKSbItSt11char_traitsItESaItEE6lengthEv @1460
    _ZNKSbItSt11char_traitsItESaItEE7_M_dataEv @1461
    _ZNKSbItSt11char_traitsItESaItEE8capacityEv @1462
    _ZNKSbItSt11char_traitsItESaItEE8max_sizeEv @1463
    _ZNKSt10_List_baseIPSsSaIS0_EE19_M_get_Tp_allocatorEv @1464
    _ZNKSt10_List_baseIPSsSaIS0_EE21_M_get_Node_allocatorEv @1465
    _ZNKSt12_Vector_baseIN11xlslib_core10CUnitStoreESaIS1_EE19_M_get_Tp_allocatorEv @1466
    _ZNKSt12_Vector_baseIN11xlslib_core14rowblocksize_tESaIS1_EE19_M_get_Tp_allocatorEv @1467
    _ZNKSt12_Vector_baseIPKN11xlslib_core7label_tESaIS3_EE19_M_get_Tp_allocatorEv @1468
    _ZNKSt12_Vector_baseIPN11xlslib_core12boundsheet_tESaIS2_EE19_M_get_Tp_allocatorEv @1469
    _ZNKSt12_Vector_baseIPN11xlslib_core4xf_tESaIS2_EE19_M_get_Tp_allocatorEv @1470
    _ZNKSt12_Vector_baseIPN11xlslib_core5CUnitESaIS2_EE19_M_get_Tp_allocatorEv @1471
    _ZNKSt12_Vector_baseIPN11xlslib_core5rangeESaIS2_EE19_M_get_Tp_allocatorEv @1472
    _ZNKSt12_Vector_baseIPN11xlslib_core6font_tESaIS2_EE19_M_get_Tp_allocatorEv @1473
    _ZNKSt12_Vector_baseIPN11xlslib_core7range_tESaIS2_EE19_M_get_Tp_allocatorEv @1474
    _ZNKSt12_Vector_baseIPN11xlslib_core7style_tESaIS2_EE19_M_get_Tp_allocatorEv @1475
    _ZNKSt12_Vector_baseIPN11xlslib_core8COlePropESaIS2_EE19_M_get_Tp_allocatorEv @1476
    _ZNKSt12_Vector_baseIPN11xlslib_core8format_tESaIS2_EE19_M_get_Tp_allocatorEv @1477
    _ZNKSt12_Vector_baseIPN11xlslib_core9HyperLinkESaIS2_EE19_M_get_Tp_allocatorEv @1478
    _ZNKSt12_Vector_baseIPN11xlslib_core9worksheetESaIS2_EE19_M_get_Tp_allocatorEv @1479
    _ZNKSt12_Vector_baseIjSaIjEE19_M_get_Tp_allocatorEv @1480
    _ZNKSt14_List_iteratorIPSsEdeEv @1481
    _ZNKSt17_Rb_tree_iteratorIPN11xlslib_core11rowheight_tEEeqERKS3_ @1482
    _ZNKSt17_Rb_tree_iteratorIPN11xlslib_core6cell_tEEeqERKS3_ @1483
    _ZNKSt17_Rb_tree_iteratorIPN11xlslib_core8HPSFitemEEeqERKS3_ @1484
    _ZNKSt17_Rb_tree_iteratorIPN11xlslib_core9colinfo_tEEeqERKS3_ @1485
    _ZNKSt17_Rb_tree_iteratorISt4pairIPN11xlslib_core4xf_tENS1_11borderedXftEEEeqERKS6_ @1486
    _ZNKSt20_List_const_iteratorIPSsEdeEv @1487
    _ZNKSt20_List_const_iteratorIPSsEneERKS1_ @1488
    _ZNKSt23_Rb_tree_const_iteratorIPN11xlslib_core11rowheight_tEEdeEv @1489
    _ZNKSt23_Rb_tree_const_iteratorIPN11xlslib_core11rowheight_tEEneERKS3_ @1490
    _ZNKSt23_Rb_tree_const_iteratorIPN11xlslib_core6cell_tEE13_M_const_castEv @1491
    _ZNKSt23_Rb_tree_const_iteratorIPN11xlslib_core6cell_tEEdeEv @1492
    _ZNKSt23_Rb_tree_const_iteratorIPN11xlslib_core6cell_tEEeqERKS3_ @1493
    _ZNKSt23_Rb_tree_const_iteratorIPN11xlslib_core6cell_tEEneERKS3_ @1494
    _ZNKSt23_Rb_tree_const_iteratorIPN11xlslib_core8HPSFitemEEdeEv @1495
    _ZNKSt23_Rb_tree_const_iteratorIPN11xlslib_core8HPSFitemEEeqERKS3_ @1496
    _ZNKSt23_Rb_tree_const_iteratorIPN11xlslib_core8HPSFitemEEneERKS3_ @1497
    _ZNKSt23_Rb_tree_const_iteratorIPN11xlslib_core9colinfo_tEEdeEv @1498
    _ZNKSt23_Rb_tree_const_iteratorIPN11xlslib_core9colinfo_tEEeqERKS3_ @1499
    _ZNKSt23_Rb_tree_const_iteratorIPN11xlslib_core9colinfo_tEEneERKS3_ @1500
    _ZNKSt23_Rb_tree_const_iteratorISt4pairIPN11xlslib_core4xf_tENS1_11borderedXftEEEdeEv @1501
    _ZNKSt23_Rb_tree_const_iteratorISt4pairIPN11xlslib_core4xf_tENS1_11borderedXftEEEneERKS6_ @1502
    _ZNKSt3setIPN11xlslib_core11rowheight_tENS0_13rowheightsortESaIS2_EE3endEv @1503
    _ZNKSt3setIPN11xlslib_core11rowheight_tENS0_13rowheightsortESaIS2_EE4sizeEv @1504
    _ZNKSt3setIPN11xlslib_core11rowheight_tENS0_13rowheightsortESaIS2_EE5beginEv @1505
    _ZNKSt3setIPN11xlslib_core11rowheight_tENS0_13rowheightsortESaIS2_EE5emptyEv @1506
    _ZNKSt3setIPN11xlslib_core6cell_tENS0_10insertsortESaIS2_EE3endEv @1507
    _ZNKSt3setIPN11xlslib_core6cell_tENS0_10insertsortESaIS2_EE4findERKS2_ @1508
    _ZNKSt3setIPN11xlslib_core6cell_tENS0_10insertsortESaIS2_EE5beginEv @1509
    _ZNKSt3setIPN11xlslib_core6cell_tENS0_10insertsortESaIS2_EE5emptyEv @1510
    _ZNKSt3setIPN11xlslib_core8HPSFitemENS0_11insertsort2ESaIS2_EE3endEv @1511
    _ZNKSt3setIPN11xlslib_core8HPSFitemENS0_11insertsort2ESaIS2_EE4sizeEv @1512
    _ZNKSt3setIPN11xlslib_core8HPSFitemENS0_11insertsort2ESaIS2_EE5beginEv @1513
    _ZNKSt3setIPN11xlslib_core9colinfo_tENS0_11colinfosortESaIS2_EE3endEv @1514
    _ZNKSt3setIPN11xlslib_core9colinfo_tENS0_11colinfosortESaIS2_EE4sizeEv @1515
    _ZNKSt3setIPN11xlslib_core9colinfo_tENS0_11colinfosortESaIS2_EE5beginEv @1516
    _ZNKSt3setIPN11xlslib_core9colinfo_tENS0_11colinfosortESaIS2_EE5emptyEv @1517
    _ZNKSt3setISt4pairIPN11xlslib_core4xf_tENS1_11borderedXftEENS1_8xfSorterESaIS5_EE3endEv @1518
    _ZNKSt4fposIiEcvxEv @1519
    _ZNKSt4lessIPKtEclERKS1_S4_ @1520
    _ZNKSt4listIPSsSaIS0_EE3endEv @1521
    _ZNKSt4listIPSsSaIS0_EE4sizeEv @1522
    _ZNKSt4listIPSsSaIS0_EE5beginEv @1523
    _ZNKSt4listIPSsSaIS0_EE5emptyEv @1524
    _ZNKSt6vectorIN11xlslib_core10CUnitStoreESaIS1_EE12_M_check_lenEjPKc @1525
    _ZNKSt6vectorIN11xlslib_core10CUnitStoreESaIS1_EE3endEv @1526
    _ZNKSt6vectorIN11xlslib_core10CUnitStoreESaIS1_EE4sizeEv @1527
    _ZNKSt6vectorIN11xlslib_core10CUnitStoreESaIS1_EE5beginEv @1528
    _ZNKSt6vectorIN11xlslib_core10CUnitStoreESaIS1_EE5emptyEv @1529
    _ZNKSt6vectorIN11xlslib_core10CUnitStoreESaIS1_EE8capacityEv @1530
    _ZNKSt6vectorIN11xlslib_core10CUnitStoreESaIS1_EE8max_sizeEv @1531
    _ZNKSt6vectorIN11xlslib_core14rowblocksize_tESaIS1_EE12_M_check_lenEjPKc @1532
    _ZNKSt6vectorIN11xlslib_core14rowblocksize_tESaIS1_EE4sizeEv @1533
    _ZNKSt6vectorIN11xlslib_core14rowblocksize_tESaIS1_EE8max_sizeEv @1534
    _ZNKSt6vectorIPKN11xlslib_core7label_tESaIS3_EE12_M_check_lenEjPKc @1535
    _ZNKSt6vectorIPKN11xlslib_core7label_tESaIS3_EE3endEv @1536
    _ZNKSt6vectorIPKN11xlslib_core7label_tESaIS3_EE4sizeEv @1537
    _ZNKSt6vectorIPKN11xlslib_core7label_tESaIS3_EE5beginEv @1538
    _ZNKSt6vectorIPKN11xlslib_core7label_tESaIS3_EE5emptyEv @1539
    _ZNKSt6vectorIPKN11xlslib_core7label_tESaIS3_EE8max_sizeEv @1540
    _ZNKSt6vectorIPN11xlslib_core12boundsheet_tESaIS2_EE12_M_check_lenEjPKc @1541
    _ZNKSt6vectorIPN11xlslib_core12boundsheet_tESaIS2_EE3endEv @1542
    _ZNKSt6vectorIPN11xlslib_core12boundsheet_tESaIS2_EE4sizeEv @1543
    _ZNKSt6vectorIPN11xlslib_core12boundsheet_tESaIS2_EE5beginEv @1544
    _ZNKSt6vectorIPN11xlslib_core12boundsheet_tESaIS2_EE5emptyEv @1545
    _ZNKSt6vectorIPN11xlslib_core12boundsheet_tESaIS2_EE8max_sizeEv @1546
    _ZNKSt6vectorIPN11xlslib_core4xf_tESaIS2_EE12_M_check_lenEjPKc @1547
    _ZNKSt6vectorIPN11xlslib_core4xf_tESaIS2_EE3endEv @1548
    _ZNKSt6vectorIPN11xlslib_core4xf_tESaIS2_EE4sizeEv @1549
    _ZNKSt6vectorIPN11xlslib_core4xf_tESaIS2_EE5beginEv @1550
    _ZNKSt6vectorIPN11xlslib_core4xf_tESaIS2_EE5emptyEv @1551
    _ZNKSt6vectorIPN11xlslib_core4xf_tESaIS2_EE8max_sizeEv @1552
    _ZNKSt6vectorIPN11xlslib_core5CUnitESaIS2_EE12_M_check_lenEjPKc @1553
    _ZNKSt6vectorIPN11xlslib_core5CUnitESaIS2_EE4sizeEv @1554
    _ZNKSt6vectorIPN11xlslib_core5CUnitESaIS2_EE8max_sizeEv @1555
    _ZNKSt6vectorIPN11xlslib_core5rangeESaIS2_EE12_M_check_lenEjPKc @1556
    _ZNKSt6vectorIPN11xlslib_core5rangeESaIS2_EE3endEv @1557
    _ZNKSt6vectorIPN11xlslib_core5rangeESaIS2_EE4sizeEv @1558
    _ZNKSt6vectorIPN11xlslib_core5rangeESaIS2_EE5beginEv @1559
    _ZNKSt6vectorIPN11xlslib_core5rangeESaIS2_EE5emptyEv @1560
    _ZNKSt6vectorIPN11xlslib_core5rangeESaIS2_EE8max_sizeEv @1561
    _ZNKSt6vectorIPN11xlslib_core6font_tESaIS2_EE12_M_check_lenEjPKc @1562
    _ZNKSt6vectorIPN11xlslib_core6font_tESaIS2_EE3endEv @1563
    _ZNKSt6vectorIPN11xlslib_core6font_tESaIS2_EE4sizeEv @1564
    _ZNKSt6vectorIPN11xlslib_core6font_tESaIS2_EE5beginEv @1565
    _ZNKSt6vectorIPN11xlslib_core6font_tESaIS2_EE5emptyEv @1566
    _ZNKSt6vectorIPN11xlslib_core6font_tESaIS2_EE8max_sizeEv @1567
    _ZNKSt6vectorIPN11xlslib_core6font_tESaIS2_EEixEj @1568
    _ZNKSt6vectorIPN11xlslib_core7range_tESaIS2_EE12_M_check_lenEjPKc @1569
    _ZNKSt6vectorIPN11xlslib_core7range_tESaIS2_EE3endEv @1570
    _ZNKSt6vectorIPN11xlslib_core7range_tESaIS2_EE4sizeEv @1571
    _ZNKSt6vectorIPN11xlslib_core7range_tESaIS2_EE5beginEv @1572
    _ZNKSt6vectorIPN11xlslib_core7range_tESaIS2_EE5emptyEv @1573
    _ZNKSt6vectorIPN11xlslib_core7range_tESaIS2_EE8max_sizeEv @1574
    _ZNKSt6vectorIPN11xlslib_core7style_tESaIS2_EE12_M_check_lenEjPKc @1575
    _ZNKSt6vectorIPN11xlslib_core7style_tESaIS2_EE3endEv @1576
    _ZNKSt6vectorIPN11xlslib_core7style_tESaIS2_EE4sizeEv @1577
    _ZNKSt6vectorIPN11xlslib_core7style_tESaIS2_EE5beginEv @1578
    _ZNKSt6vectorIPN11xlslib_core7style_tESaIS2_EE5emptyEv @1579
    _ZNKSt6vectorIPN11xlslib_core7style_tESaIS2_EE8max_sizeEv @1580
    _ZNKSt6vectorIPN11xlslib_core8COlePropESaIS2_EE12_M_check_lenEjPKc @1581
    _ZNKSt6vectorIPN11xlslib_core8COlePropESaIS2_EE3endEv @1582
    _ZNKSt6vectorIPN11xlslib_core8COlePropESaIS2_EE4sizeEv @1583
    _ZNKSt6vectorIPN11xlslib_core8COlePropESaIS2_EE5beginEv @1584
    _ZNKSt6vectorIPN11xlslib_core8COlePropESaIS2_EE5emptyEv @1585
    _ZNKSt6vectorIPN11xlslib_core8COlePropESaIS2_EE8max_sizeEv @1586
    _ZNKSt6vectorIPN11xlslib_core8format_tESaIS2_EE12_M_check_lenEjPKc @1587
    _ZNKSt6vectorIPN11xlslib_core8format_tESaIS2_EE3endEv @1588
    _ZNKSt6vectorIPN11xlslib_core8format_tESaIS2_EE4sizeEv @1589
    _ZNKSt6vectorIPN11xlslib_core8format_tESaIS2_EE5beginEv @1590
    _ZNKSt6vectorIPN11xlslib_core8format_tESaIS2_EE5emptyEv @1591
    _ZNKSt6vectorIPN11xlslib_core8format_tESaIS2_EE8max_sizeEv @1592
    _ZNKSt6vectorIPN11xlslib_core9HyperLinkESaIS2_EE12_M_check_lenEjPKc @1593
    _ZNKSt6vectorIPN11xlslib_core9HyperLinkESaIS2_EE3endEv @1594
    _ZNKSt6vectorIPN11xlslib_core9HyperLinkESaIS2_EE4sizeEv @1595
    _ZNKSt6vectorIPN11xlslib_core9HyperLinkESaIS2_EE5beginEv @1596
    _ZNKSt6vectorIPN11xlslib_core9HyperLinkESaIS2_EE5emptyEv @1597
    _ZNKSt6vectorIPN11xlslib_core9HyperLinkESaIS2_EE8max_sizeEv @1598
    _ZNKSt6vectorIPN11xlslib_core9worksheetESaIS2_EE12_M_check_lenEjPKc @1599
    _ZNKSt6vectorIPN11xlslib_core9worksheetESaIS2_EE3endEv @1600
    _ZNKSt6vectorIPN11xlslib_core9worksheetESaIS2_EE4sizeEv @1601
    _ZNKSt6vectorIPN11xlslib_core9worksheetESaIS2_EE5beginEv @1602
    _ZNKSt6vectorIPN11xlslib_core9worksheetESaIS2_EE5emptyEv @1603
    _ZNKSt6vectorIPN11xlslib_core9worksheetESaIS2_EE8max_sizeEv @1604
    _ZNKSt6vectorIjSaIjEE12_M_check_lenEjPKc @1605
    _ZNKSt6vectorIjSaIjEE4sizeEv @1606
    _ZNKSt6vectorIjSaIjEE8max_sizeEv @1607
    _ZNKSt8_Rb_treeIPN11xlslib_core11rowheight_tES2_St9_IdentityIS2_ENS0_13rowheightsortESaIS2_EE13get_allocatorEv @1608
    _ZNKSt8_Rb_treeIPN11xlslib_core11rowheight_tES2_St9_IdentityIS2_ENS0_13rowheightsortESaIS2_EE21_M_get_Node_allocatorEv @1609
    _ZNKSt8_Rb_treeIPN11xlslib_core11rowheight_tES2_St9_IdentityIS2_ENS0_13rowheightsortESaIS2_EE3endEv @1610
    _ZNKSt8_Rb_treeIPN11xlslib_core11rowheight_tES2_St9_IdentityIS2_ENS0_13rowheightsortESaIS2_EE4sizeEv @1611
    _ZNKSt8_Rb_treeIPN11xlslib_core11rowheight_tES2_St9_IdentityIS2_ENS0_13rowheightsortESaIS2_EE5beginEv @1612
    _ZNKSt8_Rb_treeIPN11xlslib_core11rowheight_tES2_St9_IdentityIS2_ENS0_13rowheightsortESaIS2_EE5emptyEv @1613
    _ZNKSt8_Rb_treeIPN11xlslib_core6cell_tES2_St9_IdentityIS2_ENS0_10insertsortESaIS2_EE13get_allocatorEv @1614
    _ZNKSt8_Rb_treeIPN11xlslib_core6cell_tES2_St9_IdentityIS2_ENS0_10insertsortESaIS2_EE14_M_lower_boundEPKSt13_Rb_tree_nodeIS2_ESB_RKS2_ @1615
    _ZNKSt8_Rb_treeIPN11xlslib_core6cell_tES2_St9_IdentityIS2_ENS0_10insertsortESaIS2_EE21_M_get_Node_allocatorEv @1616
    _ZNKSt8_Rb_treeIPN11xlslib_core6cell_tES2_St9_IdentityIS2_ENS0_10insertsortESaIS2_EE3endEv @1617
    _ZNKSt8_Rb_treeIPN11xlslib_core6cell_tES2_St9_IdentityIS2_ENS0_10insertsortESaIS2_EE4findERKS2_ @1618
    _ZNKSt8_Rb_treeIPN11xlslib_core6cell_tES2_St9_IdentityIS2_ENS0_10insertsortESaIS2_EE4sizeEv @1619
    _ZNKSt8_Rb_treeIPN11xlslib_core6cell_tES2_St9_IdentityIS2_ENS0_10insertsortESaIS2_EE5beginEv @1620
    _ZNKSt8_Rb_treeIPN11xlslib_core6cell_tES2_St9_IdentityIS2_ENS0_10insertsortESaIS2_EE5emptyEv @1621
    _ZNKSt8_Rb_treeIPN11xlslib_core6cell_tES2_St9_IdentityIS2_ENS0_10insertsortESaIS2_EE6_M_endEv @1622
    _ZNKSt8_Rb_treeIPN11xlslib_core6cell_tES2_St9_IdentityIS2_ENS0_10insertsortESaIS2_EE8_M_beginEv @1623
    _ZNKSt8_Rb_treeIPN11xlslib_core8HPSFitemES2_St9_IdentityIS2_ENS0_11insertsort2ESaIS2_EE13get_allocatorEv @1624
    _ZNKSt8_Rb_treeIPN11xlslib_core8HPSFitemES2_St9_IdentityIS2_ENS0_11insertsort2ESaIS2_EE21_M_get_Node_allocatorEv @1625
    _ZNKSt8_Rb_treeIPN11xlslib_core8HPSFitemES2_St9_IdentityIS2_ENS0_11insertsort2ESaIS2_EE3endEv @1626
    _ZNKSt8_Rb_treeIPN11xlslib_core8HPSFitemES2_St9_IdentityIS2_ENS0_11insertsort2ESaIS2_EE4sizeEv @1627
    _ZNKSt8_Rb_treeIPN11xlslib_core8HPSFitemES2_St9_IdentityIS2_ENS0_11insertsort2ESaIS2_EE5beginEv @1628
    _ZNKSt8_Rb_treeIPN11xlslib_core9colinfo_tES2_St9_IdentityIS2_ENS0_11colinfosortESaIS2_EE13get_allocatorEv @1629
    _ZNKSt8_Rb_treeIPN11xlslib_core9colinfo_tES2_St9_IdentityIS2_ENS0_11colinfosortESaIS2_EE21_M_get_Node_allocatorEv @1630
    _ZNKSt8_Rb_treeIPN11xlslib_core9colinfo_tES2_St9_IdentityIS2_ENS0_11colinfosortESaIS2_EE3endEv @1631
    _ZNKSt8_Rb_treeIPN11xlslib_core9colinfo_tES2_St9_IdentityIS2_ENS0_11colinfosortESaIS2_EE4sizeEv @1632
    _ZNKSt8_Rb_treeIPN11xlslib_core9colinfo_tES2_St9_IdentityIS2_ENS0_11colinfosortESaIS2_EE5beginEv @1633
    _ZNKSt8_Rb_treeIPN11xlslib_core9colinfo_tES2_St9_IdentityIS2_ENS0_11colinfosortESaIS2_EE5emptyEv @1634
    _ZNKSt8_Rb_treeISt4pairIPN11xlslib_core4xf_tENS1_11borderedXftEES5_St9_IdentityIS5_ENS1_8xfSorterESaIS5_EE13get_allocatorEv @1635
    _ZNKSt8_Rb_treeISt4pairIPN11xlslib_core4xf_tENS1_11borderedXftEES5_St9_IdentityIS5_ENS1_8xfSorterESaIS5_EE21_M_get_Node_allocatorEv @1636
    _ZNKSt8_Rb_treeISt4pairIPN11xlslib_core4xf_tENS1_11borderedXftEES5_St9_IdentityIS5_ENS1_8xfSorterESaIS5_EE3endEv @1637
    _ZNKSt9_IdentityIPN11xlslib_core11rowheight_tEEclERKS2_ @1638
    _ZNKSt9_IdentityIPN11xlslib_core6cell_tEEclERKS2_ @1639
    _ZNKSt9_IdentityIPN11xlslib_core8HPSFitemEEclERKS2_ @1640
    _ZNKSt9_IdentityIPN11xlslib_core9colinfo_tEEclERKS2_ @1641
    _ZNKSt9_IdentityISt4pairIPN11xlslib_core4xf_tENS1_11borderedXftEEEclERKS5_ @1642
    _ZNSaIN11xlslib_core10CUnitStoreEEC2Ev @1643
    _ZNSaIN11xlslib_core10CUnitStoreEED2Ev @1644
    _ZNSaIN11xlslib_core14rowblocksize_tEEC2Ev @1645
    _ZNSaIN11xlslib_core14rowblocksize_tEED2Ev @1646
    _ZNSaIPKN11xlslib_core7label_tEEC2Ev @1647
    _ZNSaIPKN11xlslib_core7label_tEED2Ev @1648
    _ZNSaIPN11xlslib_core11rowheight_tEEC1ISt13_Rb_tree_nodeIS1_EEERKSaIT_E @1649
    _ZNSaIPN11xlslib_core11rowheight_tEED1Ev @1650
    _ZNSaIPN11xlslib_core12boundsheet_tEEC2Ev @1651
    _ZNSaIPN11xlslib_core12boundsheet_tEED2Ev @1652
    _ZNSaIPN11xlslib_core4xf_tEEC2Ev @1653
    _ZNSaIPN11xlslib_core4xf_tEED2Ev @1654
    _ZNSaIPN11xlslib_core5CUnitEEC2Ev @1655
    _ZNSaIPN11xlslib_core5CUnitEED2Ev @1656
    _ZNSaIPN11xlslib_core5rangeEEC2Ev @1657
    _ZNSaIPN11xlslib_core5rangeEED2Ev @1658
    _ZNSaIPN11xlslib_core6cell_tEEC1ISt13_Rb_tree_nodeIS1_EEERKSaIT_E @1659
    _ZNSaIPN11xlslib_core6cell_tEED1Ev @1660
    _ZNSaIPN11xlslib_core6font_tEEC2Ev @1661
    _ZNSaIPN11xlslib_core6font_tEED2Ev @1662
    _ZNSaIPN11xlslib_core7range_tEEC2Ev @1663
    _ZNSaIPN11xlslib_core7range_tEED2Ev @1664
    _ZNSaIPN11xlslib_core7style_tEEC2Ev @1665
    _ZNSaIPN11xlslib_core7style_tEED2Ev @1666
    _ZNSaIPN11xlslib_core8COlePropEEC2Ev @1667
    _ZNSaIPN11xlslib_core8COlePropEED2Ev @1668
    _ZNSaIPN11xlslib_core8HPSFitemEEC1ISt13_Rb_tree_nodeIS1_EEERKSaIT_E @1669
    _ZNSaIPN11xlslib_core8HPSFitemEED1Ev @1670
    _ZNSaIPN11xlslib_core8format_tEEC2Ev @1671
    _ZNSaIPN11xlslib_core8format_tEED2Ev @1672
    _ZNSaIPN11xlslib_core9HyperLinkEEC2Ev @1673
    _ZNSaIPN11xlslib_core9HyperLinkEED2Ev @1674
    _ZNSaIPN11xlslib_core9colinfo_tEEC1ISt13_Rb_tree_nodeIS1_EEERKSaIT_E @1675
    _ZNSaIPN11xlslib_core9colinfo_tEED1Ev @1676
    _ZNSaIPN11xlslib_core9worksheetEEC2Ev @1677
    _ZNSaIPN11xlslib_core9worksheetEED2Ev @1678
    _ZNSaIPSsEC1ISt10_List_nodeIS_EEERKSaIT_E @1679
    _ZNSaIPSsED1Ev @1680
    _ZNSaISt10_List_nodeIPSsEEC2Ev @1681
    _ZNSaISt10_List_nodeIPSsEED2Ev @1682
    _ZNSaISt13_Rb_tree_nodeIPN11xlslib_core11rowheight_tEEEC2Ev @1683
    _ZNSaISt13_Rb_tree_nodeIPN11xlslib_core11rowheight_tEEED2Ev @1684
    _ZNSaISt13_Rb_tree_nodeIPN11xlslib_core6cell_tEEEC2Ev @1685
    _ZNSaISt13_Rb_tree_nodeIPN11xlslib_core6cell_tEEED2Ev @1686
    _ZNSaISt13_Rb_tree_nodeIPN11xlslib_core8HPSFitemEEEC2Ev @1687
    _ZNSaISt13_Rb_tree_nodeIPN11xlslib_core8HPSFitemEEED2Ev @1688
    _ZNSaISt13_Rb_tree_nodeIPN11xlslib_core9colinfo_tEEEC2Ev @1689
    _ZNSaISt13_Rb_tree_nodeIPN11xlslib_core9colinfo_tEEED2Ev @1690
    _ZNSaISt13_Rb_tree_nodeISt4pairIPN11xlslib_core4xf_tENS1_11borderedXftEEEEC2Ev @1691
    _ZNSaISt13_Rb_tree_nodeISt4pairIPN11xlslib_core4xf_tENS1_11borderedXftEEEED2Ev @1692
    _ZNSaISt4pairIPN11xlslib_core4xf_tENS0_11borderedXftEEEC1ISt13_Rb_tree_nodeIS4_EEERKSaIT_E @1693
    _ZNSaISt4pairIPN11xlslib_core4xf_tENS0_11borderedXftEEED1Ev @1694
    _ZNSaIcEC1ItEERKSaIT_E @1695
    _ZNSaIjEC2Ev @1696
    _ZNSaIjED2Ev @1697
    _ZNSaItEC1ERKS_ @1698
    _ZNSaItEC1Ev @1699
    _ZNSaItEC2ERKS_ @1700
    _ZNSaItED1Ev @1701
    _ZNSaItED2Ev @1702
    _ZNSbItSt11char_traitsItESaItEE12_Alloc_hiderC1EPtRKS1_ @1703
    _ZNSbItSt11char_traitsItESaItEE12_Alloc_hiderD1Ev @1704
    _ZNSbItSt11char_traitsItESaItEE12_M_leak_hardEv @1705
    _ZNSbItSt11char_traitsItESaItEE12_S_empty_repEv @1706
    _ZNSbItSt11char_traitsItESaItEE15_M_replace_safeEjjPKtj @1707
    _ZNSbItSt11char_traitsItESaItEE3endEv @1708
    _ZNSbItSt11char_traitsItESaItEE4_Rep10_M_destroyERKS1_ @1709
    _ZNSbItSt11char_traitsItESaItEE4_Rep10_M_disposeERKS1_ @1710
    _ZNSbItSt11char_traitsItESaItEE4_Rep10_M_refcopyEv @1711
    _ZNSbItSt11char_traitsItESaItEE4_Rep10_M_refdataEv @1712
    _ZNSbItSt11char_traitsItESaItEE4_Rep11_S_terminalE @1713 DATA
    _ZNSbItSt11char_traitsItESaItEE4_Rep12_S_empty_repEv @1714
    _ZNSbItSt11char_traitsItESaItEE4_Rep13_M_set_leakedEv @1715
    _ZNSbItSt11char_traitsItESaItEE4_Rep15_M_set_sharableEv @1716
    _ZNSbItSt11char_traitsItESaItEE4_Rep20_S_empty_rep_storageE @1717 DATA
    _ZNSbItSt11char_traitsItESaItEE4_Rep26_M_set_length_and_sharableEj @1718
    _ZNSbItSt11char_traitsItESaItEE4_Rep7_M_grabERKS1_S5_ @1719
    _ZNSbItSt11char_traitsItESaItEE4_Rep8_M_cloneERKS1_j @1720
    _ZNSbItSt11char_traitsItESaItEE4_Rep9_S_createEjjRKS1_ @1721
    _ZNSbItSt11char_traitsItESaItEE5beginEv @1722
    _ZNSbItSt11char_traitsItESaItEE5clearEv @1723
    _ZNSbItSt11char_traitsItESaItEE6assignEPKt @1724
    _ZNSbItSt11char_traitsItESaItEE6assignEPKtj @1725
    _ZNSbItSt11char_traitsItESaItEE6assignERKS2_ @1726
    _ZNSbItSt11char_traitsItESaItEE7_M_copyEPtPKtj @1727
    _ZNSbItSt11char_traitsItESaItEE7_M_dataEPt @1728
    _ZNSbItSt11char_traitsItESaItEE7_M_leakEv @1729
    _ZNSbItSt11char_traitsItESaItEE7_M_moveEPtPKtj @1730
    _ZNSbItSt11char_traitsItESaItEE7reserveEj @1731
    _ZNSbItSt11char_traitsItESaItEE9_M_mutateEjjj @1732
    _ZNSbItSt11char_traitsItESaItEE9push_backEt @1733
    _ZNSbItSt11char_traitsItESaItEEC1ERKS2_ @1734
    _ZNSbItSt11char_traitsItESaItEEC1Ev @1735
    _ZNSbItSt11char_traitsItESaItEED1Ev @1736
    _ZNSbItSt11char_traitsItESaItEEaSEPKt @1737
    _ZNSbItSt11char_traitsItESaItEEaSERKS2_ @1738
    _ZNSt10_Iter_baseIN9__gnu_cxx17__normal_iteratorIPPKN11xlslib_core7label_tESt6vectorIS5_SaIS5_EEEELb0EE7_S_baseESA_ @1739
    _ZNSt10_Iter_baseIN9__gnu_cxx17__normal_iteratorIPPKN11xlslib_core7label_tESt6vectorIS5_SaIS5_EEEELb1EE7_S_baseESA_ @1740
    _ZNSt10_Iter_baseIN9__gnu_cxx17__normal_iteratorIPPN11xlslib_core8COlePropESt6vectorIS4_SaIS4_EEEELb0EE7_S_baseES9_ @1741
    _ZNSt10_Iter_baseIN9__gnu_cxx17__normal_iteratorIPPN11xlslib_core8COlePropESt6vectorIS4_SaIS4_EEEELb1EE7_S_baseES9_ @1742
    _ZNSt10_Iter_baseIPKtLb0EE7_S_baseES1_ @1743
    _ZNSt10_Iter_baseIPN11xlslib_core10CUnitStoreELb0EE7_S_baseES2_ @1744
    _ZNSt10_Iter_baseIPN11xlslib_core14rowblocksize_tELb0EE7_S_baseES2_ @1745
    _ZNSt10_Iter_baseIPPKN11xlslib_core7label_tELb0EE7_S_baseES4_ @1746
    _ZNSt10_Iter_baseIPPN11xlslib_core12boundsheet_tELb0EE7_S_baseES3_ @1747
    _ZNSt10_Iter_baseIPPN11xlslib_core4xf_tELb0EE7_S_baseES3_ @1748
    _ZNSt10_Iter_baseIPPN11xlslib_core5CUnitELb0EE7_S_baseES3_ @1749
    _ZNSt10_Iter_baseIPPN11xlslib_core5rangeELb0EE7_S_baseES3_ @1750
    _ZNSt10_Iter_baseIPPN11xlslib_core6font_tELb0EE7_S_baseES3_ @1751
    _ZNSt10_Iter_baseIPPN11xlslib_core7range_tELb0EE7_S_baseES3_ @1752
    _ZNSt10_Iter_baseIPPN11xlslib_core7style_tELb0EE7_S_baseES3_ @1753
    _ZNSt10_Iter_baseIPPN11xlslib_core8COlePropELb0EE7_S_baseES3_ @1754
    _ZNSt10_Iter_baseIPPN11xlslib_core8format_tELb0EE7_S_baseES3_ @1755
    _ZNSt10_Iter_baseIPPN11xlslib_core9HyperLinkELb0EE7_S_baseES3_ @1756
    _ZNSt10_Iter_baseIPPN11xlslib_core9worksheetELb0EE7_S_baseES3_ @1757
    _ZNSt10_Iter_baseIPjLb0EE7_S_baseES0_ @1758
    _ZNSt10_Iter_baseIPtLb0EE7_S_baseES0_ @1759
    _ZNSt10_List_baseIPSsSaIS0_EE10_List_implC1Ev @1760
    _ZNSt10_List_baseIPSsSaIS0_EE10_List_implD1Ev @1761
    _ZNSt10_List_baseIPSsSaIS0_EE11_M_get_nodeEv @1762
    _ZNSt10_List_baseIPSsSaIS0_EE11_M_put_nodeEPSt10_List_nodeIS0_E @1763
    _ZNSt10_List_baseIPSsSaIS0_EE7_M_initEv @1764
    _ZNSt10_List_baseIPSsSaIS0_EE8_M_clearEv @1765
    _ZNSt10_List_baseIPSsSaIS0_EEC2Ev @1766
    _ZNSt10_List_baseIPSsSaIS0_EED2Ev @1767
    _ZNSt11__copy_moveILb0ELb1ESt26random_access_iterator_tagE8__copy_mIPKN11xlslib_core7label_tEEEPT_PKS7_SA_S8_ @1768
    _ZNSt11__copy_moveILb0ELb1ESt26random_access_iterator_tagE8__copy_mIPN11xlslib_core12boundsheet_tEEEPT_PKS6_S9_S7_ @1769
    _ZNSt11__copy_moveILb0ELb1ESt26random_access_iterator_tagE8__copy_mIPN11xlslib_core4xf_tEEEPT_PKS6_S9_S7_ @1770
    _ZNSt11__copy_moveILb0ELb1ESt26random_access_iterator_tagE8__copy_mIPN11xlslib_core5CUnitEEEPT_PKS6_S9_S7_ @1771
    _ZNSt11__copy_moveILb0ELb1ESt26random_access_iterator_tagE8__copy_mIPN11xlslib_core5rangeEEEPT_PKS6_S9_S7_ @1772
    _ZNSt11__copy_moveILb0ELb1ESt26random_access_iterator_tagE8__copy_mIPN11xlslib_core6font_tEEEPT_PKS6_S9_S7_ @1773
    _ZNSt11__copy_moveILb0ELb1ESt26random_access_iterator_tagE8__copy_mIPN11xlslib_core7range_tEEEPT_PKS6_S9_S7_ @1774
    _ZNSt11__copy_moveILb0ELb1ESt26random_access_iterator_tagE8__copy_mIPN11xlslib_core7style_tEEEPT_PKS6_S9_S7_ @1775
    _ZNSt11__copy_moveILb0ELb1ESt26random_access_iterator_tagE8__copy_mIPN11xlslib_core8COlePropEEEPT_PKS6_S9_S7_ @1776
    _ZNSt11__copy_moveILb0ELb1ESt26random_access_iterator_tagE8__copy_mIPN11xlslib_core8format_tEEEPT_PKS6_S9_S7_ @1777
    _ZNSt11__copy_moveILb0ELb1ESt26random_access_iterator_tagE8__copy_mIPN11xlslib_core9HyperLinkEEEPT_PKS6_S9_S7_ @1778
    _ZNSt11__copy_moveILb0ELb1ESt26random_access_iterator_tagE8__copy_mIPN11xlslib_core9worksheetEEEPT_PKS6_S9_S7_ @1779
    _ZNSt11__copy_moveILb0ELb1ESt26random_access_iterator_tagE8__copy_mIjEEPT_PKS3_S6_S4_ @1780
    _ZNSt11__copy_moveILb0ELb1ESt26random_access_iterator_tagE8__copy_mItEEPT_PKS3_S6_S4_ @1781
    _ZNSt11__iter_swapILb1EE9iter_swapIN9__gnu_cxx17__normal_iteratorIPPN11xlslib_core8COlePropESt6vectorIS6_SaIS6_EEEESB_EEvT_T0_ @1782
    _ZNSt11char_traitsIcE7compareEPKcS2_j @1783
    _ZNSt12_Destroy_auxILb0EE9__destroyIPN11xlslib_core10CUnitStoreEEEvT_S5_ @1784
    _ZNSt12_Destroy_auxILb1EE9__destroyIPN11xlslib_core14rowblocksize_tEEEvT_S5_ @1785
    _ZNSt12_Destroy_auxILb1EE9__destroyIPPKN11xlslib_core7label_tEEEvT_S7_ @1786
    _ZNSt12_Destroy_auxILb1EE9__destroyIPPN11xlslib_core12boundsheet_tEEEvT_S6_ @1787
    _ZNSt12_Destroy_auxILb1EE9__destroyIPPN11xlslib_core4xf_tEEEvT_S6_ @1788
    _ZNSt12_Destroy_auxILb1EE9__destroyIPPN11xlslib_core5CUnitEEEvT_S6_ @1789
    _ZNSt12_Destroy_auxILb1EE9__destroyIPPN11xlslib_core5rangeEEEvT_S6_ @1790
    _ZNSt12_Destroy_auxILb1EE9__destroyIPPN11xlslib_core6font_tEEEvT_S6_ @1791
    _ZNSt12_Destroy_auxILb1EE9__destroyIPPN11xlslib_core7range_tEEEvT_S6_ @1792
    _ZNSt12_Destroy_auxILb1EE9__destroyIPPN11xlslib_core7style_tEEEvT_S6_ @1793
    _ZNSt12_Destroy_auxILb1EE9__destroyIPPN11xlslib_core8COlePropEEEvT_S6_ @1794
    _ZNSt12_Destroy_auxILb1EE9__destroyIPPN11xlslib_core8format_tEEEvT_S6_ @1795
    _ZNSt12_Destroy_auxILb1EE9__destroyIPPN11xlslib_core9HyperLinkEEEvT_S6_ @1796
    _ZNSt12_Destroy_auxILb1EE9__destroyIPPN11xlslib_core9worksheetEEEvT_S6_ @1797
    _ZNSt12_Destroy_auxILb1EE9__destroyIPjEEvT_S3_ @1798
    _ZNSt12_Vector_baseIN11xlslib_core10CUnitStoreESaIS1_EE11_M_allocateEj @1799
    _ZNSt12_Vector_baseIN11xlslib_core10CUnitStoreESaIS1_EE12_Vector_implC1Ev @1800
    _ZNSt12_Vector_baseIN11xlslib_core10CUnitStoreESaIS1_EE12_Vector_implD1Ev @1801
    _ZNSt12_Vector_baseIN11xlslib_core10CUnitStoreESaIS1_EE13_M_deallocateEPS1_j @1802
    _ZNSt12_Vector_baseIN11xlslib_core10CUnitStoreESaIS1_EE19_M_get_Tp_allocatorEv @1803
    _ZNSt12_Vector_baseIN11xlslib_core10CUnitStoreESaIS1_EEC2Ev @1804
    _ZNSt12_Vector_baseIN11xlslib_core10CUnitStoreESaIS1_EED2Ev @1805
    _ZNSt12_Vector_baseIN11xlslib_core14rowblocksize_tESaIS1_EE11_M_allocateEj @1806
    _ZNSt12_Vector_baseIN11xlslib_core14rowblocksize_tESaIS1_EE12_Vector_implC1Ev @1807
    _ZNSt12_Vector_baseIN11xlslib_core14rowblocksize_tESaIS1_EE12_Vector_implD1Ev @1808
    _ZNSt12_Vector_baseIN11xlslib_core14rowblocksize_tESaIS1_EE13_M_deallocateEPS1_j @1809
    _ZNSt12_Vector_baseIN11xlslib_core14rowblocksize_tESaIS1_EE19_M_get_Tp_allocatorEv @1810
    _ZNSt12_Vector_baseIN11xlslib_core14rowblocksize_tESaIS1_EEC2Ev @1811
    _ZNSt12_Vector_baseIN11xlslib_core14rowblocksize_tESaIS1_EED2Ev @1812
    _ZNSt12_Vector_baseIPKN11xlslib_core7label_tESaIS3_EE11_M_allocateEj @1813
    _ZNSt12_Vector_baseIPKN11xlslib_core7label_tESaIS3_EE12_Vector_implC1Ev @1814
    _ZNSt12_Vector_baseIPKN11xlslib_core7label_tESaIS3_EE12_Vector_implD1Ev @1815
    _ZNSt12_Vector_baseIPKN11xlslib_core7label_tESaIS3_EE13_M_deallocateEPS3_j @1816
    _ZNSt12_Vector_baseIPKN11xlslib_core7label_tESaIS3_EE19_M_get_Tp_allocatorEv @1817
    _ZNSt12_Vector_baseIPKN11xlslib_core7label_tESaIS3_EEC2Ev @1818
    _ZNSt12_Vector_baseIPKN11xlslib_core7label_tESaIS3_EED2Ev @1819
    _ZNSt12_Vector_baseIPN11xlslib_core12boundsheet_tESaIS2_EE11_M_allocateEj @1820
    _ZNSt12_Vector_baseIPN11xlslib_core12boundsheet_tESaIS2_EE12_Vector_implC1Ev @1821
    _ZNSt12_Vector_baseIPN11xlslib_core12boundsheet_tESaIS2_EE12_Vector_implD1Ev @1822
    _ZNSt12_Vector_baseIPN11xlslib_core12boundsheet_tESaIS2_EE13_M_deallocateEPS2_j @1823
    _ZNSt12_Vector_baseIPN11xlslib_core12boundsheet_tESaIS2_EE19_M_get_Tp_allocatorEv @1824
    _ZNSt12_Vector_baseIPN11xlslib_core12boundsheet_tESaIS2_EEC2Ev @1825
    _ZNSt12_Vector_baseIPN11xlslib_core12boundsheet_tESaIS2_EED2Ev @1826
    _ZNSt12_Vector_baseIPN11xlslib_core4xf_tESaIS2_EE11_M_allocateEj @1827
    _ZNSt12_Vector_baseIPN11xlslib_core4xf_tESaIS2_EE12_Vector_implC1Ev @1828
    _ZNSt12_Vector_baseIPN11xlslib_core4xf_tESaIS2_EE12_Vector_implD1Ev @1829
    _ZNSt12_Vector_baseIPN11xlslib_core4xf_tESaIS2_EE13_M_deallocateEPS2_j @1830
    _ZNSt12_Vector_baseIPN11xlslib_core4xf_tESaIS2_EE19_M_get_Tp_allocatorEv @1831
    _ZNSt12_Vector_baseIPN11xlslib_core4xf_tESaIS2_EEC2Ev @1832
    _ZNSt12_Vector_baseIPN11xlslib_core4xf_tESaIS2_EED2Ev @1833
    _ZNSt12_Vector_baseIPN11xlslib_core5CUnitESaIS2_EE11_M_allocateEj @1834
    _ZNSt12_Vector_baseIPN11xlslib_core5CUnitESaIS2_EE12_Vector_implC1Ev @1835
    _ZNSt12_Vector_baseIPN11xlslib_core5CUnitESaIS2_EE12_Vector_implD1Ev @1836
    _ZNSt12_Vector_baseIPN11xlslib_core5CUnitESaIS2_EE13_M_deallocateEPS2_j @1837
    _ZNSt12_Vector_baseIPN11xlslib_core5CUnitESaIS2_EE19_M_get_Tp_allocatorEv @1838
    _ZNSt12_Vector_baseIPN11xlslib_core5CUnitESaIS2_EEC2Ev @1839
    _ZNSt12_Vector_baseIPN11xlslib_core5CUnitESaIS2_EED2Ev @1840
    _ZNSt12_Vector_baseIPN11xlslib_core5rangeESaIS2_EE11_M_allocateEj @1841
    _ZNSt12_Vector_baseIPN11xlslib_core5rangeESaIS2_EE12_Vector_implC1Ev @1842
    _ZNSt12_Vector_baseIPN11xlslib_core5rangeESaIS2_EE12_Vector_implD1Ev @1843
    _ZNSt12_Vector_baseIPN11xlslib_core5rangeESaIS2_EE13_M_deallocateEPS2_j @1844
    _ZNSt12_Vector_baseIPN11xlslib_core5rangeESaIS2_EE19_M_get_Tp_allocatorEv @1845
    _ZNSt12_Vector_baseIPN11xlslib_core5rangeESaIS2_EEC2Ev @1846
    _ZNSt12_Vector_baseIPN11xlslib_core5rangeESaIS2_EED2Ev @1847
    _ZNSt12_Vector_baseIPN11xlslib_core6font_tESaIS2_EE11_M_allocateEj @1848
    _ZNSt12_Vector_baseIPN11xlslib_core6font_tESaIS2_EE12_Vector_implC1Ev @1849
    _ZNSt12_Vector_baseIPN11xlslib_core6font_tESaIS2_EE12_Vector_implD1Ev @1850
    _ZNSt12_Vector_baseIPN11xlslib_core6font_tESaIS2_EE13_M_deallocateEPS2_j @1851
    _ZNSt12_Vector_baseIPN11xlslib_core6font_tESaIS2_EE19_M_get_Tp_allocatorEv @1852
    _ZNSt12_Vector_baseIPN11xlslib_core6font_tESaIS2_EEC2Ev @1853
    _ZNSt12_Vector_baseIPN11xlslib_core6font_tESaIS2_EED2Ev @1854
    _ZNSt12_Vector_baseIPN11xlslib_core7range_tESaIS2_EE11_M_allocateEj @1855
    _ZNSt12_Vector_baseIPN11xlslib_core7range_tESaIS2_EE12_Vector_implC1Ev @1856
    _ZNSt12_Vector_baseIPN11xlslib_core7range_tESaIS2_EE12_Vector_implD1Ev @1857
    _ZNSt12_Vector_baseIPN11xlslib_core7range_tESaIS2_EE13_M_deallocateEPS2_j @1858
    _ZNSt12_Vector_baseIPN11xlslib_core7range_tESaIS2_EE19_M_get_Tp_allocatorEv @1859
    _ZNSt12_Vector_baseIPN11xlslib_core7range_tESaIS2_EEC2Ev @1860
    _ZNSt12_Vector_baseIPN11xlslib_core7range_tESaIS2_EED2Ev @1861
    _ZNSt12_Vector_baseIPN11xlslib_core7style_tESaIS2_EE11_M_allocateEj @1862
    _ZNSt12_Vector_baseIPN11xlslib_core7style_tESaIS2_EE12_Vector_implC1Ev @1863
    _ZNSt12_Vector_baseIPN11xlslib_core7style_tESaIS2_EE12_Vector_implD1Ev @1864
    _ZNSt12_Vector_baseIPN11xlslib_core7style_tESaIS2_EE13_M_deallocateEPS2_j @1865
    _ZNSt12_Vector_baseIPN11xlslib_core7style_tESaIS2_EE19_M_get_Tp_allocatorEv @1866
    _ZNSt12_Vector_baseIPN11xlslib_core7style_tESaIS2_EEC2Ev @1867
    _ZNSt12_Vector_baseIPN11xlslib_core7style_tESaIS2_EED2Ev @1868
    _ZNSt12_Vector_baseIPN11xlslib_core8COlePropESaIS2_EE11_M_allocateEj @1869
    _ZNSt12_Vector_baseIPN11xlslib_core8COlePropESaIS2_EE12_Vector_implC1Ev @1870
    _ZNSt12_Vector_baseIPN11xlslib_core8COlePropESaIS2_EE12_Vector_implD1Ev @1871
    _ZNSt12_Vector_baseIPN11xlslib_core8COlePropESaIS2_EE13_M_deallocateEPS2_j @1872
    _ZNSt12_Vector_baseIPN11xlslib_core8COlePropESaIS2_EE19_M_get_Tp_allocatorEv @1873
    _ZNSt12_Vector_baseIPN11xlslib_core8COlePropESaIS2_EEC2Ev @1874
    _ZNSt12_Vector_baseIPN11xlslib_core8COlePropESaIS2_EED2Ev @1875
    _ZNSt12_Vector_baseIPN11xlslib_core8format_tESaIS2_EE11_M_allocateEj @1876
    _ZNSt12_Vector_baseIPN11xlslib_core8format_tESaIS2_EE12_Vector_implC1Ev @1877
    _ZNSt12_Vector_baseIPN11xlslib_core8format_tESaIS2_EE12_Vector_implD1Ev @1878
    _ZNSt12_Vector_baseIPN11xlslib_core8format_tESaIS2_EE13_M_deallocateEPS2_j @1879
    _ZNSt12_Vector_baseIPN11xlslib_core8format_tESaIS2_EE19_M_get_Tp_allocatorEv @1880
    _ZNSt12_Vector_baseIPN11xlslib_core8format_tESaIS2_EEC2Ev @1881
    _ZNSt12_Vector_baseIPN11xlslib_core8format_tESaIS2_EED2Ev @1882
    _ZNSt12_Vector_baseIPN11xlslib_core9HyperLinkESaIS2_EE11_M_allocateEj @1883
    _ZNSt12_Vector_baseIPN11xlslib_core9HyperLinkESaIS2_EE12_Vector_implC1Ev @1884
    _ZNSt12_Vector_baseIPN11xlslib_core9HyperLinkESaIS2_EE12_Vector_implD1Ev @1885
    _ZNSt12_Vector_baseIPN11xlslib_core9HyperLinkESaIS2_EE13_M_deallocateEPS2_j @1886
    _ZNSt12_Vector_baseIPN11xlslib_core9HyperLinkESaIS2_EE19_M_get_Tp_allocatorEv @1887
    _ZNSt12_Vector_baseIPN11xlslib_core9HyperLinkESaIS2_EEC2Ev @1888
    _ZNSt12_Vector_baseIPN11xlslib_core9HyperLinkESaIS2_EED2Ev @1889
    _ZNSt12_Vector_baseIPN11xlslib_core9worksheetESaIS2_EE11_M_allocateEj @1890
    _ZNSt12_Vector_baseIPN11xlslib_core9worksheetESaIS2_EE12_Vector_implC1Ev @1891
    _ZNSt12_Vector_baseIPN11xlslib_core9worksheetESaIS2_EE12_Vector_implD1Ev @1892
    _ZNSt12_Vector_baseIPN11xlslib_core9worksheetESaIS2_EE13_M_deallocateEPS2_j @1893
    _ZNSt12_Vector_baseIPN11xlslib_core9worksheetESaIS2_EE19_M_get_Tp_allocatorEv @1894
    _ZNSt12_Vector_baseIPN11xlslib_core9worksheetESaIS2_EEC2Ev @1895
    _ZNSt12_Vector_baseIPN11xlslib_core9worksheetESaIS2_EED2Ev @1896
    _ZNSt12_Vector_baseIjSaIjEE11_M_allocateEj @1897
    _ZNSt12_Vector_baseIjSaIjEE12_Vector_implC1Ev @1898
    _ZNSt12_Vector_baseIjSaIjEE12_Vector_implD1Ev @1899
    _ZNSt12_Vector_baseIjSaIjEE13_M_deallocateEPjj @1900
    _ZNSt12_Vector_baseIjSaIjEE19_M_get_Tp_allocatorEv @1901
    _ZNSt12_Vector_baseIjSaIjEEC2Ev @1902
    _ZNSt12_Vector_baseIjSaIjEED2Ev @1903
    _ZNSt14_List_iteratorIPSsEC1EPNSt8__detail15_List_node_baseE @1904
    _ZNSt17_Rb_tree_iteratorIPN11xlslib_core11rowheight_tEEC1EPSt13_Rb_tree_nodeIS2_E @1905
    _ZNSt17_Rb_tree_iteratorIPN11xlslib_core11rowheight_tEEmmEv @1906
    _ZNSt17_Rb_tree_iteratorIPN11xlslib_core6cell_tEEC1EPSt13_Rb_tree_nodeIS2_E @1907
    _ZNSt17_Rb_tree_iteratorIPN11xlslib_core6cell_tEEmmEv @1908
    _ZNSt17_Rb_tree_iteratorIPN11xlslib_core8HPSFitemEEC1EPSt13_Rb_tree_nodeIS2_E @1909
    _ZNSt17_Rb_tree_iteratorIPN11xlslib_core8HPSFitemEEmmEv @1910
    _ZNSt17_Rb_tree_iteratorIPN11xlslib_core9colinfo_tEEC1EPSt13_Rb_tree_nodeIS2_E @1911
    _ZNSt17_Rb_tree_iteratorIPN11xlslib_core9colinfo_tEEmmEv @1912
    _ZNSt17_Rb_tree_iteratorISt4pairIPN11xlslib_core4xf_tENS1_11borderedXftEEEC1EPSt13_Rb_tree_nodeIS5_E @1913
    _ZNSt17_Rb_tree_iteratorISt4pairIPN11xlslib_core4xf_tENS1_11borderedXftEEEmmEv @1914
    _ZNSt20_List_const_iteratorIPSsEC1EPKNSt8__detail15_List_node_baseE @1915
    _ZNSt20_List_const_iteratorIPSsEC1ERKSt14_List_iteratorIS0_E @1916
    _ZNSt20_List_const_iteratorIPSsEppEi @1917
    _ZNSt20_List_const_iteratorIPSsEppEv @1918
    _ZNSt20__copy_move_backwardILb0ELb0ESt26random_access_iterator_tagE13__copy_move_bIPN11xlslib_core10CUnitStoreES5_EET0_T_S7_S6_ @1919
    _ZNSt20__copy_move_backwardILb0ELb0ESt26random_access_iterator_tagE13__copy_move_bIPN11xlslib_core14rowblocksize_tES5_EET0_T_S7_S6_ @1920
    _ZNSt20__copy_move_backwardILb0ELb1ESt26random_access_iterator_tagE13__copy_move_bIPKN11xlslib_core7label_tEEEPT_PKS7_SA_S8_ @1921
    _ZNSt20__copy_move_backwardILb0ELb1ESt26random_access_iterator_tagE13__copy_move_bIPN11xlslib_core12boundsheet_tEEEPT_PKS6_S9_S7_ @1922
    _ZNSt20__copy_move_backwardILb0ELb1ESt26random_access_iterator_tagE13__copy_move_bIPN11xlslib_core4xf_tEEEPT_PKS6_S9_S7_ @1923
    _ZNSt20__copy_move_backwardILb0ELb1ESt26random_access_iterator_tagE13__copy_move_bIPN11xlslib_core5CUnitEEEPT_PKS6_S9_S7_ @1924
    _ZNSt20__copy_move_backwardILb0ELb1ESt26random_access_iterator_tagE13__copy_move_bIPN11xlslib_core5rangeEEEPT_PKS6_S9_S7_ @1925
    _ZNSt20__copy_move_backwardILb0ELb1ESt26random_access_iterator_tagE13__copy_move_bIPN11xlslib_core6font_tEEEPT_PKS6_S9_S7_ @1926
    _ZNSt20__copy_move_backwardILb0ELb1ESt26random_access_iterator_tagE13__copy_move_bIPN11xlslib_core7range_tEEEPT_PKS6_S9_S7_ @1927
    _ZNSt20__copy_move_backwardILb0ELb1ESt26random_access_iterator_tagE13__copy_move_bIPN11xlslib_core7style_tEEEPT_PKS6_S9_S7_ @1928
    _ZNSt20__copy_move_backwardILb0ELb1ESt26random_access_iterator_tagE13__copy_move_bIPN11xlslib_core8COlePropEEEPT_PKS6_S9_S7_ @1929
    _ZNSt20__copy_move_backwardILb0ELb1ESt26random_access_iterator_tagE13__copy_move_bIPN11xlslib_core8format_tEEEPT_PKS6_S9_S7_ @1930
    _ZNSt20__copy_move_backwardILb0ELb1ESt26random_access_iterator_tagE13__copy_move_bIPN11xlslib_core9HyperLinkEEEPT_PKS6_S9_S7_ @1931
    _ZNSt20__copy_move_backwardILb0ELb1ESt26random_access_iterator_tagE13__copy_move_bIPN11xlslib_core9worksheetEEEPT_PKS6_S9_S7_ @1932
    _ZNSt20__copy_move_backwardILb0ELb1ESt26random_access_iterator_tagE13__copy_move_bIjEEPT_PKS3_S6_S4_ @1933
    _ZNSt20__uninitialized_copyILb0EE13__uninit_copyIPN11xlslib_core10CUnitStoreES4_EET0_T_S6_S5_ @1934
    _ZNSt20__uninitialized_copyILb0EE13__uninit_copyIPN11xlslib_core14rowblocksize_tES4_EET0_T_S6_S5_ @1935
    _ZNSt20__uninitialized_copyILb1EE13__uninit_copyIPPKN11xlslib_core7label_tES6_EET0_T_S8_S7_ @1936
    _ZNSt20__uninitialized_copyILb1EE13__uninit_copyIPPN11xlslib_core12boundsheet_tES5_EET0_T_S7_S6_ @1937
    _ZNSt20__uninitialized_copyILb1EE13__uninit_copyIPPN11xlslib_core4xf_tES5_EET0_T_S7_S6_ @1938
    _ZNSt20__uninitialized_copyILb1EE13__uninit_copyIPPN11xlslib_core5CUnitES5_EET0_T_S7_S6_ @1939
    _ZNSt20__uninitialized_copyILb1EE13__uninit_copyIPPN11xlslib_core5rangeES5_EET0_T_S7_S6_ @1940
    _ZNSt20__uninitialized_copyILb1EE13__uninit_copyIPPN11xlslib_core6font_tES5_EET0_T_S7_S6_ @1941
    _ZNSt20__uninitialized_copyILb1EE13__uninit_copyIPPN11xlslib_core7range_tES5_EET0_T_S7_S6_ @1942
    _ZNSt20__uninitialized_copyILb1EE13__uninit_copyIPPN11xlslib_core7style_tES5_EET0_T_S7_S6_ @1943
    _ZNSt20__uninitialized_copyILb1EE13__uninit_copyIPPN11xlslib_core8COlePropES5_EET0_T_S7_S6_ @1944
    _ZNSt20__uninitialized_copyILb1EE13__uninit_copyIPPN11xlslib_core8format_tES5_EET0_T_S7_S6_ @1945
    _ZNSt20__uninitialized_copyILb1EE13__uninit_copyIPPN11xlslib_core9HyperLinkES5_EET0_T_S7_S6_ @1946
    _ZNSt20__uninitialized_copyILb1EE13__uninit_copyIPPN11xlslib_core9worksheetES5_EET0_T_S7_S6_ @1947
    _ZNSt20__uninitialized_copyILb1EE13__uninit_copyIPjS2_EET0_T_S4_S3_ @1948
    _ZNSt22__uninitialized_fill_nILb0EE15__uninit_fill_nIPN11xlslib_core10CUnitStoreEjS3_EEvT_T0_RKT1_ @1949
    _ZNSt22__uninitialized_fill_nILb1EE15__uninit_fill_nIPPN11xlslib_core5CUnitEjS4_EEvT_T0_RKT1_ @1950
    _ZNSt23_Rb_tree_const_iteratorIPN11xlslib_core11rowheight_tEEC1EPKSt13_Rb_tree_nodeIS2_E @1951
    _ZNSt23_Rb_tree_const_iteratorIPN11xlslib_core11rowheight_tEEC1ERKSt17_Rb_tree_iteratorIS2_E @1952
    _ZNSt23_Rb_tree_const_iteratorIPN11xlslib_core11rowheight_tEEC1Ev @1953
    _ZNSt23_Rb_tree_const_iteratorIPN11xlslib_core11rowheight_tEEppEi @1954
    _ZNSt23_Rb_tree_const_iteratorIPN11xlslib_core6cell_tEEC1EPKSt13_Rb_tree_nodeIS2_E @1955
    _ZNSt23_Rb_tree_const_iteratorIPN11xlslib_core6cell_tEEC1ERKSt17_Rb_tree_iteratorIS2_E @1956
    _ZNSt23_Rb_tree_const_iteratorIPN11xlslib_core6cell_tEEC1Ev @1957
    _ZNSt23_Rb_tree_const_iteratorIPN11xlslib_core6cell_tEEmmEv @1958
    _ZNSt23_Rb_tree_const_iteratorIPN11xlslib_core6cell_tEEppEi @1959
    _ZNSt23_Rb_tree_const_iteratorIPN11xlslib_core6cell_tEEppEv @1960
    _ZNSt23_Rb_tree_const_iteratorIPN11xlslib_core8HPSFitemEEC1EPKSt13_Rb_tree_nodeIS2_E @1961
    _ZNSt23_Rb_tree_const_iteratorIPN11xlslib_core8HPSFitemEEC1ERKSt17_Rb_tree_iteratorIS2_E @1962
    _ZNSt23_Rb_tree_const_iteratorIPN11xlslib_core8HPSFitemEEC1Ev @1963
    _ZNSt23_Rb_tree_const_iteratorIPN11xlslib_core8HPSFitemEEppEi @1964
    _ZNSt23_Rb_tree_const_iteratorIPN11xlslib_core8HPSFitemEEppEv @1965
    _ZNSt23_Rb_tree_const_iteratorIPN11xlslib_core9colinfo_tEEC1EPKSt13_Rb_tree_nodeIS2_E @1966
    _ZNSt23_Rb_tree_const_iteratorIPN11xlslib_core9colinfo_tEEC1ERKSt17_Rb_tree_iteratorIS2_E @1967
    _ZNSt23_Rb_tree_const_iteratorIPN11xlslib_core9colinfo_tEEC1Ev @1968
    _ZNSt23_Rb_tree_const_iteratorIPN11xlslib_core9colinfo_tEEppEi @1969
    _ZNSt23_Rb_tree_const_iteratorISt4pairIPN11xlslib_core4xf_tENS1_11borderedXftEEEC1EPKSt13_Rb_tree_nodeIS5_E @1970
    _ZNSt23_Rb_tree_const_iteratorISt4pairIPN11xlslib_core4xf_tENS1_11borderedXftEEEC1ERKSt17_Rb_tree_iteratorIS5_E @1971
    _ZNSt23_Rb_tree_const_iteratorISt4pairIPN11xlslib_core4xf_tENS1_11borderedXftEEEC1Ev @1972
    _ZNSt3setIPN11xlslib_core11rowheight_tENS0_13rowheightsortESaIS2_EE4findERKS2_ @1973
    _ZNSt3setIPN11xlslib_core11rowheight_tENS0_13rowheightsortESaIS2_EE5clearEv @1974
    _ZNSt3setIPN11xlslib_core11rowheight_tENS0_13rowheightsortESaIS2_EE5eraseESt23_Rb_tree_const_iteratorIS2_E @1975
    _ZNSt3setIPN11xlslib_core11rowheight_tENS0_13rowheightsortESaIS2_EE6insertERKS2_ @1976
    _ZNSt3setIPN11xlslib_core11rowheight_tENS0_13rowheightsortESaIS2_EEC1Ev @1977
    _ZNSt3setIPN11xlslib_core11rowheight_tENS0_13rowheightsortESaIS2_EED1Ev @1978
    _ZNSt3setIPN11xlslib_core6cell_tENS0_10insertsortESaIS2_EE5clearEv @1979
    _ZNSt3setIPN11xlslib_core6cell_tENS0_10insertsortESaIS2_EE5eraseERKS2_ @1980
    _ZNSt3setIPN11xlslib_core6cell_tENS0_10insertsortESaIS2_EE6insertERKS2_ @1981
    _ZNSt3setIPN11xlslib_core6cell_tENS0_10insertsortESaIS2_EE6insertESt23_Rb_tree_const_iteratorIS2_ERKS2_ @1982
    _ZNSt3setIPN11xlslib_core6cell_tENS0_10insertsortESaIS2_EEC1Ev @1983
    _ZNSt3setIPN11xlslib_core6cell_tENS0_10insertsortESaIS2_EED1Ev @1984
    _ZNSt3setIPN11xlslib_core8HPSFitemENS0_11insertsort2ESaIS2_EE5eraseERKS2_ @1985
    _ZNSt3setIPN11xlslib_core8HPSFitemENS0_11insertsort2ESaIS2_EE6insertERKS2_ @1986
    _ZNSt3setIPN11xlslib_core8HPSFitemENS0_11insertsort2ESaIS2_EEC1Ev @1987
    _ZNSt3setIPN11xlslib_core8HPSFitemENS0_11insertsort2ESaIS2_EED1Ev @1988
    _ZNSt3setIPN11xlslib_core9colinfo_tENS0_11colinfosortESaIS2_EE4findERKS2_ @1989
    _ZNSt3setIPN11xlslib_core9colinfo_tENS0_11colinfosortESaIS2_EE5clearEv @1990
    _ZNSt3setIPN11xlslib_core9colinfo_tENS0_11colinfosortESaIS2_EE5eraseESt23_Rb_tree_const_iteratorIS2_E @1991
    _ZNSt3setIPN11xlslib_core9colinfo_tENS0_11colinfosortESaIS2_EE6insertERKS2_ @1992
    _ZNSt3setIPN11xlslib_core9colinfo_tENS0_11colinfosortESaIS2_EEC1Ev @1993
    _ZNSt3setIPN11xlslib_core9colinfo_tENS0_11colinfosortESaIS2_EED1Ev @1994
    _ZNSt3setISt4pairIPN11xlslib_core4xf_tENS1_11borderedXftEENS1_8xfSorterESaIS5_EE4findERKS5_ @1995
    _ZNSt3setISt4pairIPN11xlslib_core4xf_tENS1_11borderedXftEENS1_8xfSorterESaIS5_EE6insertERKS5_ @1996
    _ZNSt3setISt4pairIPN11xlslib_core4xf_tENS1_11borderedXftEENS1_8xfSorterESaIS5_EEC1Ev @1997
    _ZNSt3setISt4pairIPN11xlslib_core4xf_tENS1_11borderedXftEENS1_8xfSorterESaIS5_EED1Ev @1998
    _ZNSt4listIPSsSaIS0_EE14_M_create_nodeERKS0_ @1999
    _ZNSt4listIPSsSaIS0_EE3endEv @2000
    _ZNSt4listIPSsSaIS0_EE5beginEv @2001
    _ZNSt4listIPSsSaIS0_EE5frontEv @2002
    _ZNSt4listIPSsSaIS0_EE8_M_eraseESt14_List_iteratorIS0_E @2003
    _ZNSt4listIPSsSaIS0_EE9_M_insertESt14_List_iteratorIS0_ERKS0_ @2004
    _ZNSt4listIPSsSaIS0_EE9pop_frontEv @2005
    _ZNSt4listIPSsSaIS0_EE9push_backERKS0_ @2006
    _ZNSt4listIPSsSaIS0_EEC1Ev @2007
    _ZNSt4listIPSsSaIS0_EED1Ev @2008
    _ZNSt4pairIPN11xlslib_core4xf_tENS0_11borderedXftEEC1ERKS2_RKS3_ @2009
    _ZNSt4pairIPN11xlslib_core4xf_tENS0_11borderedXftEED1Ev @2010
    _ZNSt4pairISt17_Rb_tree_iteratorIPN11xlslib_core11rowheight_tEEbEC1ERKS4_RKb @2011
    _ZNSt4pairISt17_Rb_tree_iteratorIPN11xlslib_core6cell_tEES4_EC1ERKS4_S7_ @2012
    _ZNSt4pairISt17_Rb_tree_iteratorIPN11xlslib_core6cell_tEEbEC1ERKS4_RKb @2013
    _ZNSt4pairISt17_Rb_tree_iteratorIPN11xlslib_core8HPSFitemEES4_EC1ERKS4_S7_ @2014
    _ZNSt4pairISt17_Rb_tree_iteratorIPN11xlslib_core8HPSFitemEEbEC1ERKS4_RKb @2015
    _ZNSt4pairISt17_Rb_tree_iteratorIPN11xlslib_core9colinfo_tEEbEC1ERKS4_RKb @2016
    _ZNSt4pairISt17_Rb_tree_iteratorIS_IPN11xlslib_core4xf_tENS1_11borderedXftEEEbEC1ERKS6_RKb @2017
    _ZNSt4pairISt23_Rb_tree_const_iteratorIPN11xlslib_core11rowheight_tEEbEC1ERKS4_RKb @2018
    _ZNSt4pairISt23_Rb_tree_const_iteratorIPN11xlslib_core6cell_tEEbEC1ERKS4_RKb @2019
    _ZNSt4pairISt23_Rb_tree_const_iteratorIPN11xlslib_core6cell_tEEbEC1Ev @2020
    _ZNSt4pairISt23_Rb_tree_const_iteratorIPN11xlslib_core8HPSFitemEEbEC1ERKS4_RKb @2021
    _ZNSt4pairISt23_Rb_tree_const_iteratorIPN11xlslib_core9colinfo_tEEbEC1ERKS4_RKb @2022
    _ZNSt4pairISt23_Rb_tree_const_iteratorIS_IPN11xlslib_core4xf_tENS1_11borderedXftEEEbEC1ERKS6_RKb @2023
    _ZNSt4pairISt23_Rb_tree_const_iteratorIS_IPN11xlslib_core4xf_tENS1_11borderedXftEEEbEC1Ev @2024
    _ZNSt6vectorIN11xlslib_core10CUnitStoreESaIS1_EE13_M_insert_auxEN9__gnu_cxx17__normal_iteratorIPS1_S3_EERKS1_ @2025
    _ZNSt6vectorIN11xlslib_core10CUnitStoreESaIS1_EE14_M_fill_insertEN9__gnu_cxx17__normal_iteratorIPS1_S3_EEjRKS1_ @2026
    _ZNSt6vectorIN11xlslib_core10CUnitStoreESaIS1_EE15_M_erase_at_endEPS1_ @2027
    _ZNSt6vectorIN11xlslib_core10CUnitStoreESaIS1_EE20_M_allocate_and_copyIPS1_EES5_jT_S6_ @2028
    _ZNSt6vectorIN11xlslib_core10CUnitStoreESaIS1_EE3endEv @2029
    _ZNSt6vectorIN11xlslib_core10CUnitStoreESaIS1_EE5beginEv @2030
    _ZNSt6vectorIN11xlslib_core10CUnitStoreESaIS1_EE6insertEN9__gnu_cxx17__normal_iteratorIPS1_S3_EERKS1_ @2031
    _ZNSt6vectorIN11xlslib_core10CUnitStoreESaIS1_EE6insertEN9__gnu_cxx17__normal_iteratorIPS1_S3_EEjRKS1_ @2032
    _ZNSt6vectorIN11xlslib_core10CUnitStoreESaIS1_EE6resizeEjS1_ @2033
    _ZNSt6vectorIN11xlslib_core10CUnitStoreESaIS1_EE7reserveEj @2034
    _ZNSt6vectorIN11xlslib_core10CUnitStoreESaIS1_EEC1Ev @2035
    _ZNSt6vectorIN11xlslib_core10CUnitStoreESaIS1_EED1Ev @2036
    _ZNSt6vectorIN11xlslib_core10CUnitStoreESaIS1_EEixEj @2037
    _ZNSt6vectorIN11xlslib_core14rowblocksize_tESaIS1_EE13_M_insert_auxEN9__gnu_cxx17__normal_iteratorIPS1_S3_EERKS1_ @2038
    _ZNSt6vectorIN11xlslib_core14rowblocksize_tESaIS1_EE15_M_erase_at_endEPS1_ @2039
    _ZNSt6vectorIN11xlslib_core14rowblocksize_tESaIS1_EE3endEv @2040
    _ZNSt6vectorIN11xlslib_core14rowblocksize_tESaIS1_EE5beginEv @2041
    _ZNSt6vectorIN11xlslib_core14rowblocksize_tESaIS1_EE5clearEv @2042
    _ZNSt6vectorIN11xlslib_core14rowblocksize_tESaIS1_EE9push_backERKS1_ @2043
    _ZNSt6vectorIN11xlslib_core14rowblocksize_tESaIS1_EEC1Ev @2044
    _ZNSt6vectorIN11xlslib_core14rowblocksize_tESaIS1_EED1Ev @2045
    _ZNSt6vectorIPKN11xlslib_core7label_tESaIS3_EE13_M_insert_auxEN9__gnu_cxx17__normal_iteratorIPS3_S5_EERKS3_ @2046
    _ZNSt6vectorIPKN11xlslib_core7label_tESaIS3_EE3endEv @2047
    _ZNSt6vectorIPKN11xlslib_core7label_tESaIS3_EE5beginEv @2048
    _ZNSt6vectorIPKN11xlslib_core7label_tESaIS3_EE5eraseEN9__gnu_cxx17__normal_iteratorIPS3_S5_EE @2049
    _ZNSt6vectorIPKN11xlslib_core7label_tESaIS3_EE9push_backERKS3_ @2050
    _ZNSt6vectorIPKN11xlslib_core7label_tESaIS3_EEC1Ev @2051
    _ZNSt6vectorIPKN11xlslib_core7label_tESaIS3_EED1Ev @2052
    _ZNSt6vectorIPN11xlslib_core12boundsheet_tESaIS2_EE13_M_insert_auxEN9__gnu_cxx17__normal_iteratorIPS2_S4_EERKS2_ @2053
    _ZNSt6vectorIPN11xlslib_core12boundsheet_tESaIS2_EE15_M_erase_at_endEPS2_ @2054
    _ZNSt6vectorIPN11xlslib_core12boundsheet_tESaIS2_EE3endEv @2055
    _ZNSt6vectorIPN11xlslib_core12boundsheet_tESaIS2_EE5beginEv @2056
    _ZNSt6vectorIPN11xlslib_core12boundsheet_tESaIS2_EE5clearEv @2057
    _ZNSt6vectorIPN11xlslib_core12boundsheet_tESaIS2_EE9push_backERKS2_ @2058
    _ZNSt6vectorIPN11xlslib_core12boundsheet_tESaIS2_EEC1Ev @2059
    _ZNSt6vectorIPN11xlslib_core12boundsheet_tESaIS2_EED1Ev @2060
    _ZNSt6vectorIPN11xlslib_core4xf_tESaIS2_EE13_M_insert_auxEN9__gnu_cxx17__normal_iteratorIPS2_S4_EERKS2_ @2061
    _ZNSt6vectorIPN11xlslib_core4xf_tESaIS2_EE15_M_erase_at_endEPS2_ @2062
    _ZNSt6vectorIPN11xlslib_core4xf_tESaIS2_EE3endEv @2063
    _ZNSt6vectorIPN11xlslib_core4xf_tESaIS2_EE5beginEv @2064
    _ZNSt6vectorIPN11xlslib_core4xf_tESaIS2_EE5clearEv @2065
    _ZNSt6vectorIPN11xlslib_core4xf_tESaIS2_EE9push_backERKS2_ @2066
    _ZNSt6vectorIPN11xlslib_core4xf_tESaIS2_EEC1Ev @2067
    _ZNSt6vectorIPN11xlslib_core4xf_tESaIS2_EED1Ev @2068
    _ZNSt6vectorIPN11xlslib_core5CUnitESaIS2_EE13_M_insert_auxEN9__gnu_cxx17__normal_iteratorIPS2_S4_EERKS2_ @2069
    _ZNSt6vectorIPN11xlslib_core5CUnitESaIS2_EE14_M_fill_insertEN9__gnu_cxx17__normal_iteratorIPS2_S4_EEjRKS2_ @2070
    _ZNSt6vectorIPN11xlslib_core5CUnitESaIS2_EE15_M_erase_at_endEPS2_ @2071
    _ZNSt6vectorIPN11xlslib_core5CUnitESaIS2_EE3endEv @2072
    _ZNSt6vectorIPN11xlslib_core5CUnitESaIS2_EE5beginEv @2073
    _ZNSt6vectorIPN11xlslib_core5CUnitESaIS2_EE6insertEN9__gnu_cxx17__normal_iteratorIPS2_S4_EEjRKS2_ @2074
    _ZNSt6vectorIPN11xlslib_core5CUnitESaIS2_EE6resizeEjS2_ @2075
    _ZNSt6vectorIPN11xlslib_core5CUnitESaIS2_EE9push_backERKS2_ @2076
    _ZNSt6vectorIPN11xlslib_core5CUnitESaIS2_EEC1Ev @2077
    _ZNSt6vectorIPN11xlslib_core5CUnitESaIS2_EED1Ev @2078
    _ZNSt6vectorIPN11xlslib_core5rangeESaIS2_EE13_M_insert_auxEN9__gnu_cxx17__normal_iteratorIPS2_S4_EERKS2_ @2079
    _ZNSt6vectorIPN11xlslib_core5rangeESaIS2_EE15_M_erase_at_endEPS2_ @2080
    _ZNSt6vectorIPN11xlslib_core5rangeESaIS2_EE3endEv @2081
    _ZNSt6vectorIPN11xlslib_core5rangeESaIS2_EE5beginEv @2082
    _ZNSt6vectorIPN11xlslib_core5rangeESaIS2_EE5clearEv @2083
    _ZNSt6vectorIPN11xlslib_core5rangeESaIS2_EE9push_backERKS2_ @2084
    _ZNSt6vectorIPN11xlslib_core5rangeESaIS2_EEC1Ev @2085
    _ZNSt6vectorIPN11xlslib_core5rangeESaIS2_EED1Ev @2086
    _ZNSt6vectorIPN11xlslib_core6font_tESaIS2_EE13_M_insert_auxEN9__gnu_cxx17__normal_iteratorIPS2_S4_EERKS2_ @2087
    _ZNSt6vectorIPN11xlslib_core6font_tESaIS2_EE15_M_erase_at_endEPS2_ @2088
    _ZNSt6vectorIPN11xlslib_core6font_tESaIS2_EE3endEv @2089
    _ZNSt6vectorIPN11xlslib_core6font_tESaIS2_EE5beginEv @2090
    _ZNSt6vectorIPN11xlslib_core6font_tESaIS2_EE5clearEv @2091
    _ZNSt6vectorIPN11xlslib_core6font_tESaIS2_EE9push_backERKS2_ @2092
    _ZNSt6vectorIPN11xlslib_core6font_tESaIS2_EEC1Ev @2093
    _ZNSt6vectorIPN11xlslib_core6font_tESaIS2_EED1Ev @2094
    _ZNSt6vectorIPN11xlslib_core7range_tESaIS2_EE13_M_insert_auxEN9__gnu_cxx17__normal_iteratorIPS2_S4_EERKS2_ @2095
    _ZNSt6vectorIPN11xlslib_core7range_tESaIS2_EE15_M_erase_at_endEPS2_ @2096
    _ZNSt6vectorIPN11xlslib_core7range_tESaIS2_EE3endEv @2097
    _ZNSt6vectorIPN11xlslib_core7range_tESaIS2_EE5beginEv @2098
    _ZNSt6vectorIPN11xlslib_core7range_tESaIS2_EE5clearEv @2099
    _ZNSt6vectorIPN11xlslib_core7range_tESaIS2_EE9push_backERKS2_ @2100
    _ZNSt6vectorIPN11xlslib_core7range_tESaIS2_EEC1Ev @2101
    _ZNSt6vectorIPN11xlslib_core7range_tESaIS2_EED1Ev @2102
    _ZNSt6vectorIPN11xlslib_core7style_tESaIS2_EE13_M_insert_auxEN9__gnu_cxx17__normal_iteratorIPS2_S4_EERKS2_ @2103
    _ZNSt6vectorIPN11xlslib_core7style_tESaIS2_EE15_M_erase_at_endEPS2_ @2104
    _ZNSt6vectorIPN11xlslib_core7style_tESaIS2_EE3endEv @2105
    _ZNSt6vectorIPN11xlslib_core7style_tESaIS2_EE5beginEv @2106
    _ZNSt6vectorIPN11xlslib_core7style_tESaIS2_EE5clearEv @2107
    _ZNSt6vectorIPN11xlslib_core7style_tESaIS2_EE9push_backERKS2_ @2108
    _ZNSt6vectorIPN11xlslib_core7style_tESaIS2_EEC1Ev @2109
    _ZNSt6vectorIPN11xlslib_core7style_tESaIS2_EED1Ev @2110
    _ZNSt6vectorIPN11xlslib_core8COlePropESaIS2_EE13_M_insert_auxEN9__gnu_cxx17__normal_iteratorIPS2_S4_EERKS2_ @2111
    _ZNSt6vectorIPN11xlslib_core8COlePropESaIS2_EE3endEv @2112
    _ZNSt6vectorIPN11xlslib_core8COlePropESaIS2_EE5beginEv @2113
    _ZNSt6vectorIPN11xlslib_core8COlePropESaIS2_EE9push_backERKS2_ @2114
    _ZNSt6vectorIPN11xlslib_core8COlePropESaIS2_EEC1Ev @2115
    _ZNSt6vectorIPN11xlslib_core8COlePropESaIS2_EED1Ev @2116
    _ZNSt6vectorIPN11xlslib_core8format_tESaIS2_EE13_M_insert_auxEN9__gnu_cxx17__normal_iteratorIPS2_S4_EERKS2_ @2117
    _ZNSt6vectorIPN11xlslib_core8format_tESaIS2_EE15_M_erase_at_endEPS2_ @2118
    _ZNSt6vectorIPN11xlslib_core8format_tESaIS2_EE3endEv @2119
    _ZNSt6vectorIPN11xlslib_core8format_tESaIS2_EE5beginEv @2120
    _ZNSt6vectorIPN11xlslib_core8format_tESaIS2_EE5clearEv @2121
    _ZNSt6vectorIPN11xlslib_core8format_tESaIS2_EE9push_backERKS2_ @2122
    _ZNSt6vectorIPN11xlslib_core8format_tESaIS2_EEC1Ev @2123
    _ZNSt6vectorIPN11xlslib_core8format_tESaIS2_EED1Ev @2124
    _ZNSt6vectorIPN11xlslib_core9HyperLinkESaIS2_EE13_M_insert_auxEN9__gnu_cxx17__normal_iteratorIPS2_S4_EERKS2_ @2125
    _ZNSt6vectorIPN11xlslib_core9HyperLinkESaIS2_EE15_M_erase_at_endEPS2_ @2126
    _ZNSt6vectorIPN11xlslib_core9HyperLinkESaIS2_EE3endEv @2127
    _ZNSt6vectorIPN11xlslib_core9HyperLinkESaIS2_EE5beginEv @2128
    _ZNSt6vectorIPN11xlslib_core9HyperLinkESaIS2_EE5clearEv @2129
    _ZNSt6vectorIPN11xlslib_core9HyperLinkESaIS2_EE9push_backERKS2_ @2130
    _ZNSt6vectorIPN11xlslib_core9HyperLinkESaIS2_EEC1Ev @2131
    _ZNSt6vectorIPN11xlslib_core9HyperLinkESaIS2_EED1Ev @2132
    _ZNSt6vectorIPN11xlslib_core9worksheetESaIS2_EE13_M_insert_auxEN9__gnu_cxx17__normal_iteratorIPS2_S4_EERKS2_ @2133
    _ZNSt6vectorIPN11xlslib_core9worksheetESaIS2_EE3endEv @2134
    _ZNSt6vectorIPN11xlslib_core9worksheetESaIS2_EE4backEv @2135
    _ZNSt6vectorIPN11xlslib_core9worksheetESaIS2_EE5beginEv @2136
    _ZNSt6vectorIPN11xlslib_core9worksheetESaIS2_EE9push_backERKS2_ @2137
    _ZNSt6vectorIPN11xlslib_core9worksheetESaIS2_EEC1Ev @2138
    _ZNSt6vectorIPN11xlslib_core9worksheetESaIS2_EED1Ev @2139
    _ZNSt6vectorIPN11xlslib_core9worksheetESaIS2_EEixEj @2140
    _ZNSt6vectorIjSaIjEE13_M_insert_auxEN9__gnu_cxx17__normal_iteratorIPjS1_EERKj @2141
    _ZNSt6vectorIjSaIjEE15_M_erase_at_endEPj @2142
    _ZNSt6vectorIjSaIjEE3endEv @2143
    _ZNSt6vectorIjSaIjEE5beginEv @2144
    _ZNSt6vectorIjSaIjEE5clearEv @2145
    _ZNSt6vectorIjSaIjEE9push_backERKj @2146
    _ZNSt6vectorIjSaIjEEC1Ev @2147
    _ZNSt6vectorIjSaIjEED1Ev @2148
    _ZNSt8_Rb_treeIPN11xlslib_core11rowheight_tES2_St9_IdentityIS2_ENS0_13rowheightsortESaIS2_EE10_M_insert_EPKSt18_Rb_tree_node_baseSA_RKS2_ @2149
    _ZNSt8_Rb_treeIPN11xlslib_core11rowheight_tES2_St9_IdentityIS2_ENS0_13rowheightsortESaIS2_EE11_M_get_nodeEv @2150
    _ZNSt8_Rb_treeIPN11xlslib_core11rowheight_tES2_St9_IdentityIS2_ENS0_13rowheightsortESaIS2_EE11_M_leftmostEv @2151
    _ZNSt8_Rb_treeIPN11xlslib_core11rowheight_tES2_St9_IdentityIS2_ENS0_13rowheightsortESaIS2_EE11_M_put_nodeEPSt13_Rb_tree_nodeIS2_E @2152
    _ZNSt8_Rb_treeIPN11xlslib_core11rowheight_tES2_St9_IdentityIS2_ENS0_13rowheightsortESaIS2_EE12_M_erase_auxESt23_Rb_tree_const_iteratorIS2_E @2153
    _ZNSt8_Rb_treeIPN11xlslib_core11rowheight_tES2_St9_IdentityIS2_ENS0_13rowheightsortESaIS2_EE12_M_rightmostEv @2154
    _ZNSt8_Rb_treeIPN11xlslib_core11rowheight_tES2_St9_IdentityIS2_ENS0_13rowheightsortESaIS2_EE13_Rb_tree_implIS5_Lb1EE13_M_initializeEv @2155
    _ZNSt8_Rb_treeIPN11xlslib_core11rowheight_tES2_St9_IdentityIS2_ENS0_13rowheightsortESaIS2_EE13_Rb_tree_implIS5_Lb1EEC1Ev @2156
    _ZNSt8_Rb_treeIPN11xlslib_core11rowheight_tES2_St9_IdentityIS2_ENS0_13rowheightsortESaIS2_EE13_Rb_tree_implIS5_Lb1EED1Ev @2157
    _ZNSt8_Rb_treeIPN11xlslib_core11rowheight_tES2_St9_IdentityIS2_ENS0_13rowheightsortESaIS2_EE14_M_create_nodeERKS2_ @2158
    _ZNSt8_Rb_treeIPN11xlslib_core11rowheight_tES2_St9_IdentityIS2_ENS0_13rowheightsortESaIS2_EE14_M_lower_boundEPSt13_Rb_tree_nodeIS2_ESA_RKS2_ @2159
    _ZNSt8_Rb_treeIPN11xlslib_core11rowheight_tES2_St9_IdentityIS2_ENS0_13rowheightsortESaIS2_EE15_M_destroy_nodeEPSt13_Rb_tree_nodeIS2_E @2160
    _ZNSt8_Rb_treeIPN11xlslib_core11rowheight_tES2_St9_IdentityIS2_ENS0_13rowheightsortESaIS2_EE16_M_insert_uniqueERKS2_ @2161
    _ZNSt8_Rb_treeIPN11xlslib_core11rowheight_tES2_St9_IdentityIS2_ENS0_13rowheightsortESaIS2_EE3endEv @2162
    _ZNSt8_Rb_treeIPN11xlslib_core11rowheight_tES2_St9_IdentityIS2_ENS0_13rowheightsortESaIS2_EE4findERKS2_ @2163
    _ZNSt8_Rb_treeIPN11xlslib_core11rowheight_tES2_St9_IdentityIS2_ENS0_13rowheightsortESaIS2_EE5beginEv @2164
    _ZNSt8_Rb_treeIPN11xlslib_core11rowheight_tES2_St9_IdentityIS2_ENS0_13rowheightsortESaIS2_EE5clearEv @2165
    _ZNSt8_Rb_treeIPN11xlslib_core11rowheight_tES2_St9_IdentityIS2_ENS0_13rowheightsortESaIS2_EE5eraseESt23_Rb_tree_const_iteratorIS2_E @2166
    _ZNSt8_Rb_treeIPN11xlslib_core11rowheight_tES2_St9_IdentityIS2_ENS0_13rowheightsortESaIS2_EE6_M_endEv @2167
    _ZNSt8_Rb_treeIPN11xlslib_core11rowheight_tES2_St9_IdentityIS2_ENS0_13rowheightsortESaIS2_EE6_S_keyEPKSt13_Rb_tree_nodeIS2_E @2168
    _ZNSt8_Rb_treeIPN11xlslib_core11rowheight_tES2_St9_IdentityIS2_ENS0_13rowheightsortESaIS2_EE6_S_keyEPKSt18_Rb_tree_node_base @2169
    _ZNSt8_Rb_treeIPN11xlslib_core11rowheight_tES2_St9_IdentityIS2_ENS0_13rowheightsortESaIS2_EE7_M_rootEv @2170
    _ZNSt8_Rb_treeIPN11xlslib_core11rowheight_tES2_St9_IdentityIS2_ENS0_13rowheightsortESaIS2_EE7_S_leftEPSt18_Rb_tree_node_base @2171
    _ZNSt8_Rb_treeIPN11xlslib_core11rowheight_tES2_St9_IdentityIS2_ENS0_13rowheightsortESaIS2_EE8_M_beginEv @2172
    _ZNSt8_Rb_treeIPN11xlslib_core11rowheight_tES2_St9_IdentityIS2_ENS0_13rowheightsortESaIS2_EE8_M_eraseEPSt13_Rb_tree_nodeIS2_E @2173
    _ZNSt8_Rb_treeIPN11xlslib_core11rowheight_tES2_St9_IdentityIS2_ENS0_13rowheightsortESaIS2_EE8_S_rightEPSt18_Rb_tree_node_base @2174
    _ZNSt8_Rb_treeIPN11xlslib_core11rowheight_tES2_St9_IdentityIS2_ENS0_13rowheightsortESaIS2_EE8_S_valueEPKSt13_Rb_tree_nodeIS2_E @2175
    _ZNSt8_Rb_treeIPN11xlslib_core11rowheight_tES2_St9_IdentityIS2_ENS0_13rowheightsortESaIS2_EE8_S_valueEPKSt18_Rb_tree_node_base @2176
    _ZNSt8_Rb_treeIPN11xlslib_core11rowheight_tES2_St9_IdentityIS2_ENS0_13rowheightsortESaIS2_EEC1Ev @2177
    _ZNSt8_Rb_treeIPN11xlslib_core11rowheight_tES2_St9_IdentityIS2_ENS0_13rowheightsortESaIS2_EED1Ev @2178
    _ZNSt8_Rb_treeIPN11xlslib_core6cell_tES2_St9_IdentityIS2_ENS0_10insertsortESaIS2_EE10_M_insert_EPKSt18_Rb_tree_node_baseSA_RKS2_ @2179
    _ZNSt8_Rb_treeIPN11xlslib_core6cell_tES2_St9_IdentityIS2_ENS0_10insertsortESaIS2_EE11_M_get_nodeEv @2180
    _ZNSt8_Rb_treeIPN11xlslib_core6cell_tES2_St9_IdentityIS2_ENS0_10insertsortESaIS2_EE11_M_leftmostEv @2181
    _ZNSt8_Rb_treeIPN11xlslib_core6cell_tES2_St9_IdentityIS2_ENS0_10insertsortESaIS2_EE11_M_put_nodeEPSt13_Rb_tree_nodeIS2_E @2182
    _ZNSt8_Rb_treeIPN11xlslib_core6cell_tES2_St9_IdentityIS2_ENS0_10insertsortESaIS2_EE11equal_rangeERKS2_ @2183
    _ZNSt8_Rb_treeIPN11xlslib_core6cell_tES2_St9_IdentityIS2_ENS0_10insertsortESaIS2_EE12_M_erase_auxESt23_Rb_tree_const_iteratorIS2_E @2184
    _ZNSt8_Rb_treeIPN11xlslib_core6cell_tES2_St9_IdentityIS2_ENS0_10insertsortESaIS2_EE12_M_erase_auxESt23_Rb_tree_const_iteratorIS2_ES9_ @2185
    _ZNSt8_Rb_treeIPN11xlslib_core6cell_tES2_St9_IdentityIS2_ENS0_10insertsortESaIS2_EE12_M_rightmostEv @2186
    _ZNSt8_Rb_treeIPN11xlslib_core6cell_tES2_St9_IdentityIS2_ENS0_10insertsortESaIS2_EE13_Rb_tree_implIS5_Lb1EE13_M_initializeEv @2187
    _ZNSt8_Rb_treeIPN11xlslib_core6cell_tES2_St9_IdentityIS2_ENS0_10insertsortESaIS2_EE13_Rb_tree_implIS5_Lb1EEC1Ev @2188
    _ZNSt8_Rb_treeIPN11xlslib_core6cell_tES2_St9_IdentityIS2_ENS0_10insertsortESaIS2_EE13_Rb_tree_implIS5_Lb1EED1Ev @2189
    _ZNSt8_Rb_treeIPN11xlslib_core6cell_tES2_St9_IdentityIS2_ENS0_10insertsortESaIS2_EE14_M_create_nodeERKS2_ @2190
    _ZNSt8_Rb_treeIPN11xlslib_core6cell_tES2_St9_IdentityIS2_ENS0_10insertsortESaIS2_EE14_M_lower_boundEPSt13_Rb_tree_nodeIS2_ESA_RKS2_ @2191
    _ZNSt8_Rb_treeIPN11xlslib_core6cell_tES2_St9_IdentityIS2_ENS0_10insertsortESaIS2_EE14_M_upper_boundEPSt13_Rb_tree_nodeIS2_ESA_RKS2_ @2192
    _ZNSt8_Rb_treeIPN11xlslib_core6cell_tES2_St9_IdentityIS2_ENS0_10insertsortESaIS2_EE15_M_destroy_nodeEPSt13_Rb_tree_nodeIS2_E @2193
    _ZNSt8_Rb_treeIPN11xlslib_core6cell_tES2_St9_IdentityIS2_ENS0_10insertsortESaIS2_EE16_M_insert_uniqueERKS2_ @2194
    _ZNSt8_Rb_treeIPN11xlslib_core6cell_tES2_St9_IdentityIS2_ENS0_10insertsortESaIS2_EE17_M_insert_unique_ESt23_Rb_tree_const_iteratorIS2_ERKS2_ @2195
    _ZNSt8_Rb_treeIPN11xlslib_core6cell_tES2_St9_IdentityIS2_ENS0_10insertsortESaIS2_EE3endEv @2196
    _ZNSt8_Rb_treeIPN11xlslib_core6cell_tES2_St9_IdentityIS2_ENS0_10insertsortESaIS2_EE5beginEv @2197
    _ZNSt8_Rb_treeIPN11xlslib_core6cell_tES2_St9_IdentityIS2_ENS0_10insertsortESaIS2_EE5clearEv @2198
    _ZNSt8_Rb_treeIPN11xlslib_core6cell_tES2_St9_IdentityIS2_ENS0_10insertsortESaIS2_EE5eraseERKS2_ @2199
    _ZNSt8_Rb_treeIPN11xlslib_core6cell_tES2_St9_IdentityIS2_ENS0_10insertsortESaIS2_EE5eraseESt17_Rb_tree_iteratorIS2_ES9_ @2200
    _ZNSt8_Rb_treeIPN11xlslib_core6cell_tES2_St9_IdentityIS2_ENS0_10insertsortESaIS2_EE5eraseESt23_Rb_tree_const_iteratorIS2_E @2201
    _ZNSt8_Rb_treeIPN11xlslib_core6cell_tES2_St9_IdentityIS2_ENS0_10insertsortESaIS2_EE6_M_endEv @2202
    _ZNSt8_Rb_treeIPN11xlslib_core6cell_tES2_St9_IdentityIS2_ENS0_10insertsortESaIS2_EE6_S_keyEPKSt13_Rb_tree_nodeIS2_E @2203
    _ZNSt8_Rb_treeIPN11xlslib_core6cell_tES2_St9_IdentityIS2_ENS0_10insertsortESaIS2_EE6_S_keyEPKSt18_Rb_tree_node_base @2204
    _ZNSt8_Rb_treeIPN11xlslib_core6cell_tES2_St9_IdentityIS2_ENS0_10insertsortESaIS2_EE7_M_rootEv @2205
    _ZNSt8_Rb_treeIPN11xlslib_core6cell_tES2_St9_IdentityIS2_ENS0_10insertsortESaIS2_EE7_S_leftEPKSt18_Rb_tree_node_base @2206
    _ZNSt8_Rb_treeIPN11xlslib_core6cell_tES2_St9_IdentityIS2_ENS0_10insertsortESaIS2_EE7_S_leftEPSt18_Rb_tree_node_base @2207
    _ZNSt8_Rb_treeIPN11xlslib_core6cell_tES2_St9_IdentityIS2_ENS0_10insertsortESaIS2_EE8_M_beginEv @2208
    _ZNSt8_Rb_treeIPN11xlslib_core6cell_tES2_St9_IdentityIS2_ENS0_10insertsortESaIS2_EE8_M_eraseEPSt13_Rb_tree_nodeIS2_E @2209
    _ZNSt8_Rb_treeIPN11xlslib_core6cell_tES2_St9_IdentityIS2_ENS0_10insertsortESaIS2_EE8_S_rightEPKSt18_Rb_tree_node_base @2210
    _ZNSt8_Rb_treeIPN11xlslib_core6cell_tES2_St9_IdentityIS2_ENS0_10insertsortESaIS2_EE8_S_rightEPSt18_Rb_tree_node_base @2211
    _ZNSt8_Rb_treeIPN11xlslib_core6cell_tES2_St9_IdentityIS2_ENS0_10insertsortESaIS2_EE8_S_valueEPKSt13_Rb_tree_nodeIS2_E @2212
    _ZNSt8_Rb_treeIPN11xlslib_core6cell_tES2_St9_IdentityIS2_ENS0_10insertsortESaIS2_EE8_S_valueEPKSt18_Rb_tree_node_base @2213
    _ZNSt8_Rb_treeIPN11xlslib_core6cell_tES2_St9_IdentityIS2_ENS0_10insertsortESaIS2_EEC1Ev @2214
    _ZNSt8_Rb_treeIPN11xlslib_core6cell_tES2_St9_IdentityIS2_ENS0_10insertsortESaIS2_EED1Ev @2215
    _ZNSt8_Rb_treeIPN11xlslib_core8HPSFitemES2_St9_IdentityIS2_ENS0_11insertsort2ESaIS2_EE10_M_insert_EPKSt18_Rb_tree_node_baseSA_RKS2_ @2216
    _ZNSt8_Rb_treeIPN11xlslib_core8HPSFitemES2_St9_IdentityIS2_ENS0_11insertsort2ESaIS2_EE11_M_get_nodeEv @2217
    _ZNSt8_Rb_treeIPN11xlslib_core8HPSFitemES2_St9_IdentityIS2_ENS0_11insertsort2ESaIS2_EE11_M_leftmostEv @2218
    _ZNSt8_Rb_treeIPN11xlslib_core8HPSFitemES2_St9_IdentityIS2_ENS0_11insertsort2ESaIS2_EE11_M_put_nodeEPSt13_Rb_tree_nodeIS2_E @2219
    _ZNSt8_Rb_treeIPN11xlslib_core8HPSFitemES2_St9_IdentityIS2_ENS0_11insertsort2ESaIS2_EE11equal_rangeERKS2_ @2220
    _ZNSt8_Rb_treeIPN11xlslib_core8HPSFitemES2_St9_IdentityIS2_ENS0_11insertsort2ESaIS2_EE12_M_erase_auxESt23_Rb_tree_const_iteratorIS2_E @2221
    _ZNSt8_Rb_treeIPN11xlslib_core8HPSFitemES2_St9_IdentityIS2_ENS0_11insertsort2ESaIS2_EE12_M_erase_auxESt23_Rb_tree_const_iteratorIS2_ES9_ @2222
    _ZNSt8_Rb_treeIPN11xlslib_core8HPSFitemES2_St9_IdentityIS2_ENS0_11insertsort2ESaIS2_EE12_M_rightmostEv @2223
    _ZNSt8_Rb_treeIPN11xlslib_core8HPSFitemES2_St9_IdentityIS2_ENS0_11insertsort2ESaIS2_EE13_Rb_tree_implIS5_Lb1EE13_M_initializeEv @2224
    _ZNSt8_Rb_treeIPN11xlslib_core8HPSFitemES2_St9_IdentityIS2_ENS0_11insertsort2ESaIS2_EE13_Rb_tree_implIS5_Lb1EEC1Ev @2225
    _ZNSt8_Rb_treeIPN11xlslib_core8HPSFitemES2_St9_IdentityIS2_ENS0_11insertsort2ESaIS2_EE13_Rb_tree_implIS5_Lb1EED1Ev @2226
    _ZNSt8_Rb_treeIPN11xlslib_core8HPSFitemES2_St9_IdentityIS2_ENS0_11insertsort2ESaIS2_EE14_M_create_nodeERKS2_ @2227
    _ZNSt8_Rb_treeIPN11xlslib_core8HPSFitemES2_St9_IdentityIS2_ENS0_11insertsort2ESaIS2_EE14_M_lower_boundEPSt13_Rb_tree_nodeIS2_ESA_RKS2_ @2228
    _ZNSt8_Rb_treeIPN11xlslib_core8HPSFitemES2_St9_IdentityIS2_ENS0_11insertsort2ESaIS2_EE14_M_upper_boundEPSt13_Rb_tree_nodeIS2_ESA_RKS2_ @2229
    _ZNSt8_Rb_treeIPN11xlslib_core8HPSFitemES2_St9_IdentityIS2_ENS0_11insertsort2ESaIS2_EE15_M_destroy_nodeEPSt13_Rb_tree_nodeIS2_E @2230
    _ZNSt8_Rb_treeIPN11xlslib_core8HPSFitemES2_St9_IdentityIS2_ENS0_11insertsort2ESaIS2_EE16_M_insert_uniqueERKS2_ @2231
    _ZNSt8_Rb_treeIPN11xlslib_core8HPSFitemES2_St9_IdentityIS2_ENS0_11insertsort2ESaIS2_EE3endEv @2232
    _ZNSt8_Rb_treeIPN11xlslib_core8HPSFitemES2_St9_IdentityIS2_ENS0_11insertsort2ESaIS2_EE5beginEv @2233
    _ZNSt8_Rb_treeIPN11xlslib_core8HPSFitemES2_St9_IdentityIS2_ENS0_11insertsort2ESaIS2_EE5clearEv @2234
    _ZNSt8_Rb_treeIPN11xlslib_core8HPSFitemES2_St9_IdentityIS2_ENS0_11insertsort2ESaIS2_EE5eraseERKS2_ @2235
    _ZNSt8_Rb_treeIPN11xlslib_core8HPSFitemES2_St9_IdentityIS2_ENS0_11insertsort2ESaIS2_EE5eraseESt17_Rb_tree_iteratorIS2_ES9_ @2236
    _ZNSt8_Rb_treeIPN11xlslib_core8HPSFitemES2_St9_IdentityIS2_ENS0_11insertsort2ESaIS2_EE5eraseESt23_Rb_tree_const_iteratorIS2_E @2237
    _ZNSt8_Rb_treeIPN11xlslib_core8HPSFitemES2_St9_IdentityIS2_ENS0_11insertsort2ESaIS2_EE6_M_endEv @2238
    _ZNSt8_Rb_treeIPN11xlslib_core8HPSFitemES2_St9_IdentityIS2_ENS0_11insertsort2ESaIS2_EE6_S_keyEPKSt13_Rb_tree_nodeIS2_E @2239
    _ZNSt8_Rb_treeIPN11xlslib_core8HPSFitemES2_St9_IdentityIS2_ENS0_11insertsort2ESaIS2_EE6_S_keyEPKSt18_Rb_tree_node_base @2240
    _ZNSt8_Rb_treeIPN11xlslib_core8HPSFitemES2_St9_IdentityIS2_ENS0_11insertsort2ESaIS2_EE7_M_rootEv @2241
    _ZNSt8_Rb_treeIPN11xlslib_core8HPSFitemES2_St9_IdentityIS2_ENS0_11insertsort2ESaIS2_EE7_S_leftEPSt18_Rb_tree_node_base @2242
    _ZNSt8_Rb_treeIPN11xlslib_core8HPSFitemES2_St9_IdentityIS2_ENS0_11insertsort2ESaIS2_EE8_M_beginEv @2243
    _ZNSt8_Rb_treeIPN11xlslib_core8HPSFitemES2_St9_IdentityIS2_ENS0_11insertsort2ESaIS2_EE8_M_eraseEPSt13_Rb_tree_nodeIS2_E @2244
    _ZNSt8_Rb_treeIPN11xlslib_core8HPSFitemES2_St9_IdentityIS2_ENS0_11insertsort2ESaIS2_EE8_S_rightEPSt18_Rb_tree_node_base @2245
    _ZNSt8_Rb_treeIPN11xlslib_core8HPSFitemES2_St9_IdentityIS2_ENS0_11insertsort2ESaIS2_EE8_S_valueEPKSt13_Rb_tree_nodeIS2_E @2246
    _ZNSt8_Rb_treeIPN11xlslib_core8HPSFitemES2_St9_IdentityIS2_ENS0_11insertsort2ESaIS2_EE8_S_valueEPKSt18_Rb_tree_node_base @2247
    _ZNSt8_Rb_treeIPN11xlslib_core8HPSFitemES2_St9_IdentityIS2_ENS0_11insertsort2ESaIS2_EEC1Ev @2248
    _ZNSt8_Rb_treeIPN11xlslib_core8HPSFitemES2_St9_IdentityIS2_ENS0_11insertsort2ESaIS2_EED1Ev @2249
    _ZNSt8_Rb_treeIPN11xlslib_core9colinfo_tES2_St9_IdentityIS2_ENS0_11colinfosortESaIS2_EE10_M_insert_EPKSt18_Rb_tree_node_baseSA_RKS2_ @2250
    _ZNSt8_Rb_treeIPN11xlslib_core9colinfo_tES2_St9_IdentityIS2_ENS0_11colinfosortESaIS2_EE11_M_get_nodeEv @2251
    _ZNSt8_Rb_treeIPN11xlslib_core9colinfo_tES2_St9_IdentityIS2_ENS0_11colinfosortESaIS2_EE11_M_leftmostEv @2252
    _ZNSt8_Rb_treeIPN11xlslib_core9colinfo_tES2_St9_IdentityIS2_ENS0_11colinfosortESaIS2_EE11_M_put_nodeEPSt13_Rb_tree_nodeIS2_E @2253
    _ZNSt8_Rb_treeIPN11xlslib_core9colinfo_tES2_St9_IdentityIS2_ENS0_11colinfosortESaIS2_EE12_M_erase_auxESt23_Rb_tree_const_iteratorIS2_E @2254
    _ZNSt8_Rb_treeIPN11xlslib_core9colinfo_tES2_St9_IdentityIS2_ENS0_11colinfosortESaIS2_EE12_M_rightmostEv @2255
    _ZNSt8_Rb_treeIPN11xlslib_core9colinfo_tES2_St9_IdentityIS2_ENS0_11colinfosortESaIS2_EE13_Rb_tree_implIS5_Lb1EE13_M_initializeEv @2256
    _ZNSt8_Rb_treeIPN11xlslib_core9colinfo_tES2_St9_IdentityIS2_ENS0_11colinfosortESaIS2_EE13_Rb_tree_implIS5_Lb1EEC1Ev @2257
    _ZNSt8_Rb_treeIPN11xlslib_core9colinfo_tES2_St9_IdentityIS2_ENS0_11colinfosortESaIS2_EE13_Rb_tree_implIS5_Lb1EED1Ev @2258
    _ZNSt8_Rb_treeIPN11xlslib_core9colinfo_tES2_St9_IdentityIS2_ENS0_11colinfosortESaIS2_EE14_M_create_nodeERKS2_ @2259
    _ZNSt8_Rb_treeIPN11xlslib_core9colinfo_tES2_St9_IdentityIS2_ENS0_11colinfosortESaIS2_EE14_M_lower_boundEPSt13_Rb_tree_nodeIS2_ESA_RKS2_ @2260
    _ZNSt8_Rb_treeIPN11xlslib_core9colinfo_tES2_St9_IdentityIS2_ENS0_11colinfosortESaIS2_EE15_M_destroy_nodeEPSt13_Rb_tree_nodeIS2_E @2261
    _ZNSt8_Rb_treeIPN11xlslib_core9colinfo_tES2_St9_IdentityIS2_ENS0_11colinfosortESaIS2_EE16_M_insert_uniqueERKS2_ @2262
    _ZNSt8_Rb_treeIPN11xlslib_core9colinfo_tES2_St9_IdentityIS2_ENS0_11colinfosortESaIS2_EE3endEv @2263
    _ZNSt8_Rb_treeIPN11xlslib_core9colinfo_tES2_St9_IdentityIS2_ENS0_11colinfosortESaIS2_EE4findERKS2_ @2264
    _ZNSt8_Rb_treeIPN11xlslib_core9colinfo_tES2_St9_IdentityIS2_ENS0_11colinfosortESaIS2_EE5beginEv @2265
    _ZNSt8_Rb_treeIPN11xlslib_core9colinfo_tES2_St9_IdentityIS2_ENS0_11colinfosortESaIS2_EE5clearEv @2266
    _ZNSt8_Rb_treeIPN11xlslib_core9colinfo_tES2_St9_IdentityIS2_ENS0_11colinfosortESaIS2_EE5eraseESt23_Rb_tree_const_iteratorIS2_E @2267
    _ZNSt8_Rb_treeIPN11xlslib_core9colinfo_tES2_St9_IdentityIS2_ENS0_11colinfosortESaIS2_EE6_M_endEv @2268
    _ZNSt8_Rb_treeIPN11xlslib_core9colinfo_tES2_St9_IdentityIS2_ENS0_11colinfosortESaIS2_EE6_S_keyEPKSt13_Rb_tree_nodeIS2_E @2269
    _ZNSt8_Rb_treeIPN11xlslib_core9colinfo_tES2_St9_IdentityIS2_ENS0_11colinfosortESaIS2_EE6_S_keyEPKSt18_Rb_tree_node_base @2270
    _ZNSt8_Rb_treeIPN11xlslib_core9colinfo_tES2_St9_IdentityIS2_ENS0_11colinfosortESaIS2_EE7_M_rootEv @2271
    _ZNSt8_Rb_treeIPN11xlslib_core9colinfo_tES2_St9_IdentityIS2_ENS0_11colinfosortESaIS2_EE7_S_leftEPSt18_Rb_tree_node_base @2272
    _ZNSt8_Rb_treeIPN11xlslib_core9colinfo_tES2_St9_IdentityIS2_ENS0_11colinfosortESaIS2_EE8_M_beginEv @2273
    _ZNSt8_Rb_treeIPN11xlslib_core9colinfo_tES2_St9_IdentityIS2_ENS0_11colinfosortESaIS2_EE8_M_eraseEPSt13_Rb_tree_nodeIS2_E @2274
    _ZNSt8_Rb_treeIPN11xlslib_core9colinfo_tES2_St9_IdentityIS2_ENS0_11colinfosortESaIS2_EE8_S_rightEPSt18_Rb_tree_node_base @2275
    _ZNSt8_Rb_treeIPN11xlslib_core9colinfo_tES2_St9_IdentityIS2_ENS0_11colinfosortESaIS2_EE8_S_valueEPKSt13_Rb_tree_nodeIS2_E @2276
    _ZNSt8_Rb_treeIPN11xlslib_core9colinfo_tES2_St9_IdentityIS2_ENS0_11colinfosortESaIS2_EE8_S_valueEPKSt18_Rb_tree_node_base @2277
    _ZNSt8_Rb_treeIPN11xlslib_core9colinfo_tES2_St9_IdentityIS2_ENS0_11colinfosortESaIS2_EEC1Ev @2278
    _ZNSt8_Rb_treeIPN11xlslib_core9colinfo_tES2_St9_IdentityIS2_ENS0_11colinfosortESaIS2_EED1Ev @2279
    _ZNSt8_Rb_treeISt4pairIPN11xlslib_core4xf_tENS1_11borderedXftEES5_St9_IdentityIS5_ENS1_8xfSorterESaIS5_EE10_M_insert_EPKSt18_Rb_tree_node_baseSD_RKS5_ @2280
    _ZNSt8_Rb_treeISt4pairIPN11xlslib_core4xf_tENS1_11borderedXftEES5_St9_IdentityIS5_ENS1_8xfSorterESaIS5_EE11_M_get_nodeEv @2281
    _ZNSt8_Rb_treeISt4pairIPN11xlslib_core4xf_tENS1_11borderedXftEES5_St9_IdentityIS5_ENS1_8xfSorterESaIS5_EE11_M_put_nodeEPSt13_Rb_tree_nodeIS5_E @2282
    _ZNSt8_Rb_treeISt4pairIPN11xlslib_core4xf_tENS1_11borderedXftEES5_St9_IdentityIS5_ENS1_8xfSorterESaIS5_EE13_Rb_tree_implIS8_Lb1EE13_M_initializeEv @2283
    _ZNSt8_Rb_treeISt4pairIPN11xlslib_core4xf_tENS1_11borderedXftEES5_St9_IdentityIS5_ENS1_8xfSorterESaIS5_EE13_Rb_tree_implIS8_Lb1EEC1Ev @2284
    _ZNSt8_Rb_treeISt4pairIPN11xlslib_core4xf_tENS1_11borderedXftEES5_St9_IdentityIS5_ENS1_8xfSorterESaIS5_EE13_Rb_tree_implIS8_Lb1EED1Ev @2285
    _ZNSt8_Rb_treeISt4pairIPN11xlslib_core4xf_tENS1_11borderedXftEES5_St9_IdentityIS5_ENS1_8xfSorterESaIS5_EE14_M_create_nodeERKS5_ @2286
    _ZNSt8_Rb_treeISt4pairIPN11xlslib_core4xf_tENS1_11borderedXftEES5_St9_IdentityIS5_ENS1_8xfSorterESaIS5_EE14_M_lower_boundEPSt13_Rb_tree_nodeIS5_ESD_RKS5_ @2287
    _ZNSt8_Rb_treeISt4pairIPN11xlslib_core4xf_tENS1_11borderedXftEES5_St9_IdentityIS5_ENS1_8xfSorterESaIS5_EE15_M_destroy_nodeEPSt13_Rb_tree_nodeIS5_E @2288
    _ZNSt8_Rb_treeISt4pairIPN11xlslib_core4xf_tENS1_11borderedXftEES5_St9_IdentityIS5_ENS1_8xfSorterESaIS5_EE16_M_insert_uniqueERKS5_ @2289
    _ZNSt8_Rb_treeISt4pairIPN11xlslib_core4xf_tENS1_11borderedXftEES5_St9_IdentityIS5_ENS1_8xfSorterESaIS5_EE3endEv @2290
    _ZNSt8_Rb_treeISt4pairIPN11xlslib_core4xf_tENS1_11borderedXftEES5_St9_IdentityIS5_ENS1_8xfSorterESaIS5_EE4findERKS5_ @2291
    _ZNSt8_Rb_treeISt4pairIPN11xlslib_core4xf_tENS1_11borderedXftEES5_St9_IdentityIS5_ENS1_8xfSorterESaIS5_EE5beginEv @2292
    _ZNSt8_Rb_treeISt4pairIPN11xlslib_core4xf_tENS1_11borderedXftEES5_St9_IdentityIS5_ENS1_8xfSorterESaIS5_EE6_M_endEv @2293
    _ZNSt8_Rb_treeISt4pairIPN11xlslib_core4xf_tENS1_11borderedXftEES5_St9_IdentityIS5_ENS1_8xfSorterESaIS5_EE6_S_keyEPKSt13_Rb_tree_nodeIS5_E @2294
    _ZNSt8_Rb_treeISt4pairIPN11xlslib_core4xf_tENS1_11borderedXftEES5_St9_IdentityIS5_ENS1_8xfSorterESaIS5_EE6_S_keyEPKSt18_Rb_tree_node_base @2295
    _ZNSt8_Rb_treeISt4pairIPN11xlslib_core4xf_tENS1_11borderedXftEES5_St9_IdentityIS5_ENS1_8xfSorterESaIS5_EE7_S_leftEPSt18_Rb_tree_node_base @2296
    _ZNSt8_Rb_treeISt4pairIPN11xlslib_core4xf_tENS1_11borderedXftEES5_St9_IdentityIS5_ENS1_8xfSorterESaIS5_EE8_M_beginEv @2297
    _ZNSt8_Rb_treeISt4pairIPN11xlslib_core4xf_tENS1_11borderedXftEES5_St9_IdentityIS5_ENS1_8xfSorterESaIS5_EE8_M_eraseEPSt13_Rb_tree_nodeIS5_E @2298
    _ZNSt8_Rb_treeISt4pairIPN11xlslib_core4xf_tENS1_11borderedXftEES5_St9_IdentityIS5_ENS1_8xfSorterESaIS5_EE8_S_rightEPSt18_Rb_tree_node_base @2299
    _ZNSt8_Rb_treeISt4pairIPN11xlslib_core4xf_tENS1_11borderedXftEES5_St9_IdentityIS5_ENS1_8xfSorterESaIS5_EE8_S_valueEPKSt13_Rb_tree_nodeIS5_E @2300
    _ZNSt8_Rb_treeISt4pairIPN11xlslib_core4xf_tENS1_11borderedXftEES5_St9_IdentityIS5_ENS1_8xfSorterESaIS5_EE8_S_valueEPKSt18_Rb_tree_node_base @2301
    _ZNSt8_Rb_treeISt4pairIPN11xlslib_core4xf_tENS1_11borderedXftEES5_St9_IdentityIS5_ENS1_8xfSorterESaIS5_EEC1Ev @2302
    _ZNSt8_Rb_treeISt4pairIPN11xlslib_core4xf_tENS1_11borderedXftEES5_St9_IdentityIS5_ENS1_8xfSorterESaIS5_EED1Ev @2303
    _ZNSt8ios_base4setfESt13_Ios_FmtflagsS0_ @2304
    _ZSt10_ConstructIN11xlslib_core10CUnitStoreES1_EvPT_RKT0_ @2305
    _ZSt10_ConstructIN11xlslib_core14rowblocksize_tES1_EvPT_RKT0_ @2306
    _ZSt10__distanceISt20_List_const_iteratorIPSsEENSt15iterator_traitsIT_E15difference_typeES4_S4_St18input_iterator_tag @2307
    _ZSt10__fill_n_aIPPN11xlslib_core5CUnitEjS2_EN9__gnu_cxx11__enable_ifIXsrSt11__is_scalarIT1_E7__valueET_E6__typeES9_T0_RKS7_ @2308
    _ZSt10__pop_heapIN9__gnu_cxx17__normal_iteratorIPPN11xlslib_core8COlePropESt6vectorIS4_SaIS4_EEEEPFbPKS3_SB_EEvT_SE_SE_T0_ @2309
    _ZSt11__addressofIN11xlslib_core10CUnitStoreEEPT_RS2_ @2310
    _ZSt11__addressofIN11xlslib_core14rowblocksize_tEEPT_RS2_ @2311
    _ZSt11__addressofIPN11xlslib_core11rowheight_tEEPT_RS3_ @2312
    _ZSt11__addressofIPN11xlslib_core6cell_tEEPT_RS3_ @2313
    _ZSt11__addressofIPN11xlslib_core8HPSFitemEEPT_RS3_ @2314
    _ZSt11__addressofIPN11xlslib_core9colinfo_tEEPT_RS3_ @2315
    _ZSt11__addressofIPSsEPT_RS1_ @2316
    _ZSt11__addressofISt4pairIPN11xlslib_core4xf_tENS1_11borderedXftEEEPT_RS6_ @2317
    _ZSt11__push_heapIN9__gnu_cxx17__normal_iteratorIPPN11xlslib_core8COlePropESt6vectorIS4_SaIS4_EEEEiS4_PFbPKS3_SB_EEvT_T0_SF_T1_T2_ @2318
    _ZSt12__miter_baseIN9__gnu_cxx17__normal_iteratorIPPKN11xlslib_core7label_tESt6vectorIS5_SaIS5_EEEEENSt11_Miter_baseIT_E13iterator_typeESC_ @2319
    _ZSt12__miter_baseIN9__gnu_cxx17__normal_iteratorIPPN11xlslib_core8COlePropESt6vectorIS4_SaIS4_EEEEENSt11_Miter_baseIT_E13iterator_typeESB_ @2320
    _ZSt12__miter_baseIPKtENSt11_Miter_baseIT_E13iterator_typeES3_ @2321
    _ZSt12__miter_baseIPN11xlslib_core10CUnitStoreEENSt11_Miter_baseIT_E13iterator_typeES4_ @2322
    _ZSt12__miter_baseIPN11xlslib_core14rowblocksize_tEENSt11_Miter_baseIT_E13iterator_typeES4_ @2323
    _ZSt12__miter_baseIPPKN11xlslib_core7label_tEENSt11_Miter_baseIT_E13iterator_typeES6_ @2324
    _ZSt12__miter_baseIPPN11xlslib_core12boundsheet_tEENSt11_Miter_baseIT_E13iterator_typeES5_ @2325
    _ZSt12__miter_baseIPPN11xlslib_core4xf_tEENSt11_Miter_baseIT_E13iterator_typeES5_ @2326
    _ZSt12__miter_baseIPPN11xlslib_core5CUnitEENSt11_Miter_baseIT_E13iterator_typeES5_ @2327
    _ZSt12__miter_baseIPPN11xlslib_core5rangeEENSt11_Miter_baseIT_E13iterator_typeES5_ @2328
    _ZSt12__miter_baseIPPN11xlslib_core6font_tEENSt11_Miter_baseIT_E13iterator_typeES5_ @2329
    _ZSt12__miter_baseIPPN11xlslib_core7range_tEENSt11_Miter_baseIT_E13iterator_typeES5_ @2330
    _ZSt12__miter_baseIPPN11xlslib_core7style_tEENSt11_Miter_baseIT_E13iterator_typeES5_ @2331
    _ZSt12__miter_baseIPPN11xlslib_core8COlePropEENSt11_Miter_baseIT_E13iterator_typeES5_ @2332
    _ZSt12__miter_baseIPPN11xlslib_core8format_tEENSt11_Miter_baseIT_E13iterator_typeES5_ @2333
    _ZSt12__miter_baseIPPN11xlslib_core9HyperLinkEENSt11_Miter_baseIT_E13iterator_typeES5_ @2334
    _ZSt12__miter_baseIPPN11xlslib_core9worksheetEENSt11_Miter_baseIT_E13iterator_typeES5_ @2335
    _ZSt12__miter_baseIPjENSt11_Miter_baseIT_E13iterator_typeES2_ @2336
    _ZSt12__niter_baseIN9__gnu_cxx17__normal_iteratorIPPKN11xlslib_core7label_tESt6vectorIS5_SaIS5_EEEEENSt11_Niter_baseIT_E13iterator_typeESC_ @2337
    _ZSt12__niter_baseIN9__gnu_cxx17__normal_iteratorIPPN11xlslib_core8COlePropESt6vectorIS4_SaIS4_EEEEENSt11_Niter_baseIT_E13iterator_typeESB_ @2338
    _ZSt12__niter_baseIPKtENSt11_Niter_baseIT_E13iterator_typeES3_ @2339
    _ZSt12__niter_baseIPN11xlslib_core10CUnitStoreEENSt11_Niter_baseIT_E13iterator_typeES4_ @2340
    _ZSt12__niter_baseIPN11xlslib_core14rowblocksize_tEENSt11_Niter_baseIT_E13iterator_typeES4_ @2341
    _ZSt12__niter_baseIPPKN11xlslib_core7label_tEENSt11_Niter_baseIT_E13iterator_typeES6_ @2342
    _ZSt12__niter_baseIPPN11xlslib_core12boundsheet_tEENSt11_Niter_baseIT_E13iterator_typeES5_ @2343
    _ZSt12__niter_baseIPPN11xlslib_core4xf_tEENSt11_Niter_baseIT_E13iterator_typeES5_ @2344
    _ZSt12__niter_baseIPPN11xlslib_core5CUnitEENSt11_Niter_baseIT_E13iterator_typeES5_ @2345
    _ZSt12__niter_baseIPPN11xlslib_core5rangeEENSt11_Niter_baseIT_E13iterator_typeES5_ @2346
    _ZSt12__niter_baseIPPN11xlslib_core6font_tEENSt11_Niter_baseIT_E13iterator_typeES5_ @2347
    _ZSt12__niter_baseIPPN11xlslib_core7range_tEENSt11_Niter_baseIT_E13iterator_typeES5_ @2348
    _ZSt12__niter_baseIPPN11xlslib_core7style_tEENSt11_Niter_baseIT_E13iterator_typeES5_ @2349
    _ZSt12__niter_baseIPPN11xlslib_core8COlePropEENSt11_Niter_baseIT_E13iterator_typeES5_ @2350
    _ZSt12__niter_baseIPPN11xlslib_core8format_tEENSt11_Niter_baseIT_E13iterator_typeES5_ @2351
    _ZSt12__niter_baseIPPN11xlslib_core9HyperLinkEENSt11_Niter_baseIT_E13iterator_typeES5_ @2352
    _ZSt12__niter_baseIPPN11xlslib_core9worksheetEENSt11_Niter_baseIT_E13iterator_typeES5_ @2353
    _ZSt12__niter_baseIPjENSt11_Niter_baseIT_E13iterator_typeES2_ @2354
    _ZSt12__niter_baseIPtENSt11_Niter_baseIT_E13iterator_typeES2_ @2355
    _ZSt12partial_sortIN9__gnu_cxx17__normal_iteratorIPPN11xlslib_core8COlePropESt6vectorIS4_SaIS4_EEEEPFbPKS3_SB_EEvT_SE_SE_T0_ @2356
    _ZSt13__adjust_heapIN9__gnu_cxx17__normal_iteratorIPPN11xlslib_core8COlePropESt6vectorIS4_SaIS4_EEEEiS4_PFbPKS3_SB_EEvT_T0_SF_T1_T2_ @2357
    _ZSt13__copy_move_aILb0EPKtPtET1_T0_S4_S3_ @2358
    _ZSt13__copy_move_aILb0EPPKN11xlslib_core7label_tES4_ET1_T0_S6_S5_ @2359
    _ZSt13__copy_move_aILb0EPPN11xlslib_core12boundsheet_tES3_ET1_T0_S5_S4_ @2360
    _ZSt13__copy_move_aILb0EPPN11xlslib_core4xf_tES3_ET1_T0_S5_S4_ @2361
    _ZSt13__copy_move_aILb0EPPN11xlslib_core5CUnitES3_ET1_T0_S5_S4_ @2362
    _ZSt13__copy_move_aILb0EPPN11xlslib_core5rangeES3_ET1_T0_S5_S4_ @2363
    _ZSt13__copy_move_aILb0EPPN11xlslib_core6font_tES3_ET1_T0_S5_S4_ @2364
    _ZSt13__copy_move_aILb0EPPN11xlslib_core7range_tES3_ET1_T0_S5_S4_ @2365
    _ZSt13__copy_move_aILb0EPPN11xlslib_core7style_tES3_ET1_T0_S5_S4_ @2366
    _ZSt13__copy_move_aILb0EPPN11xlslib_core8COlePropES3_ET1_T0_S5_S4_ @2367
    _ZSt13__copy_move_aILb0EPPN11xlslib_core8format_tES3_ET1_T0_S5_S4_ @2368
    _ZSt13__copy_move_aILb0EPPN11xlslib_core9HyperLinkES3_ET1_T0_S5_S4_ @2369
    _ZSt13__copy_move_aILb0EPPN11xlslib_core9worksheetES3_ET1_T0_S5_S4_ @2370
    _ZSt13__copy_move_aILb0EPjS0_ET1_T0_S2_S1_ @2371
    _ZSt13__heap_selectIN9__gnu_cxx17__normal_iteratorIPPN11xlslib_core8COlePropESt6vectorIS4_SaIS4_EEEEPFbPKS3_SB_EEvT_SE_SE_T0_ @2372
    _ZSt13copy_backwardIN9__gnu_cxx17__normal_iteratorIPPN11xlslib_core8COlePropESt6vectorIS4_SaIS4_EEEES9_ET0_T_SB_SA_ @2373
    _ZSt13copy_backwardIPN11xlslib_core10CUnitStoreES2_ET0_T_S4_S3_ @2374
    _ZSt13copy_backwardIPN11xlslib_core14rowblocksize_tES2_ET0_T_S4_S3_ @2375
    _ZSt13copy_backwardIPPKN11xlslib_core7label_tES4_ET0_T_S6_S5_ @2376
    _ZSt13copy_backwardIPPN11xlslib_core12boundsheet_tES3_ET0_T_S5_S4_ @2377
    _ZSt13copy_backwardIPPN11xlslib_core4xf_tES3_ET0_T_S5_S4_ @2378
    _ZSt13copy_backwardIPPN11xlslib_core5CUnitES3_ET0_T_S5_S4_ @2379
    _ZSt13copy_backwardIPPN11xlslib_core5rangeES3_ET0_T_S5_S4_ @2380
    _ZSt13copy_backwardIPPN11xlslib_core6font_tES3_ET0_T_S5_S4_ @2381
    _ZSt13copy_backwardIPPN11xlslib_core7range_tES3_ET0_T_S5_S4_ @2382
    _ZSt13copy_backwardIPPN11xlslib_core7style_tES3_ET0_T_S5_S4_ @2383
    _ZSt13copy_backwardIPPN11xlslib_core8COlePropES3_ET0_T_S5_S4_ @2384
    _ZSt13copy_backwardIPPN11xlslib_core8format_tES3_ET0_T_S5_S4_ @2385
    _ZSt13copy_backwardIPPN11xlslib_core9HyperLinkES3_ET0_T_S5_S4_ @2386
    _ZSt13copy_backwardIPPN11xlslib_core9worksheetES3_ET0_T_S5_S4_ @2387
    _ZSt13copy_backwardIPjS0_ET0_T_S2_S1_ @2388
    _ZSt14__copy_move_a2ILb0EN9__gnu_cxx17__normal_iteratorIPPKN11xlslib_core7label_tESt6vectorIS5_SaIS5_EEEESA_ET1_T0_SC_SB_ @2389
    _ZSt14__copy_move_a2ILb0EPKtPtET1_T0_S4_S3_ @2390
    _ZSt14__copy_move_a2ILb0EPPKN11xlslib_core7label_tES4_ET1_T0_S6_S5_ @2391
    _ZSt14__copy_move_a2ILb0EPPN11xlslib_core12boundsheet_tES3_ET1_T0_S5_S4_ @2392
    _ZSt14__copy_move_a2ILb0EPPN11xlslib_core4xf_tES3_ET1_T0_S5_S4_ @2393
    _ZSt14__copy_move_a2ILb0EPPN11xlslib_core5CUnitES3_ET1_T0_S5_S4_ @2394
    _ZSt14__copy_move_a2ILb0EPPN11xlslib_core5rangeES3_ET1_T0_S5_S4_ @2395
    _ZSt14__copy_move_a2ILb0EPPN11xlslib_core6font_tES3_ET1_T0_S5_S4_ @2396
    _ZSt14__copy_move_a2ILb0EPPN11xlslib_core7range_tES3_ET1_T0_S5_S4_ @2397
    _ZSt14__copy_move_a2ILb0EPPN11xlslib_core7style_tES3_ET1_T0_S5_S4_ @2398
    _ZSt14__copy_move_a2ILb0EPPN11xlslib_core8COlePropES3_ET1_T0_S5_S4_ @2399
    _ZSt14__copy_move_a2ILb0EPPN11xlslib_core8format_tES3_ET1_T0_S5_S4_ @2400
    _ZSt14__copy_move_a2ILb0EPPN11xlslib_core9HyperLinkES3_ET1_T0_S5_S4_ @2401
    _ZSt14__copy_move_a2ILb0EPPN11xlslib_core9worksheetES3_ET1_T0_S5_S4_ @2402
    _ZSt14__copy_move_a2ILb0EPjS0_ET1_T0_S2_S1_ @2403
    _ZSt16__insertion_sortIN9__gnu_cxx17__normal_iteratorIPPN11xlslib_core8COlePropESt6vectorIS4_SaIS4_EEEEPFbPKS3_SB_EEvT_SE_T0_ @2404
    _ZSt16__introsort_loopIN9__gnu_cxx17__normal_iteratorIPPN11xlslib_core8COlePropESt6vectorIS4_SaIS4_EEEEiPFbPKS3_SB_EEvT_SE_T0_T1_ @2405
    _ZSt18uninitialized_copyIPN11xlslib_core10CUnitStoreES2_ET0_T_S4_S3_ @2406
    _ZSt18uninitialized_copyIPN11xlslib_core14rowblocksize_tES2_ET0_T_S4_S3_ @2407
    _ZSt18uninitialized_copyIPPKN11xlslib_core7label_tES4_ET0_T_S6_S5_ @2408
    _ZSt18uninitialized_copyIPPN11xlslib_core12boundsheet_tES3_ET0_T_S5_S4_ @2409
    _ZSt18uninitialized_copyIPPN11xlslib_core4xf_tES3_ET0_T_S5_S4_ @2410
    _ZSt18uninitialized_copyIPPN11xlslib_core5CUnitES3_ET0_T_S5_S4_ @2411
    _ZSt18uninitialized_copyIPPN11xlslib_core5rangeES3_ET0_T_S5_S4_ @2412
    _ZSt18uninitialized_copyIPPN11xlslib_core6font_tES3_ET0_T_S5_S4_ @2413
    _ZSt18uninitialized_copyIPPN11xlslib_core7range_tES3_ET0_T_S5_S4_ @2414
    _ZSt18uninitialized_copyIPPN11xlslib_core7style_tES3_ET0_T_S5_S4_ @2415
    _ZSt18uninitialized_copyIPPN11xlslib_core8COlePropES3_ET0_T_S5_S4_ @2416
    _ZSt18uninitialized_copyIPPN11xlslib_core8format_tES3_ET0_T_S5_S4_ @2417
    _ZSt18uninitialized_copyIPPN11xlslib_core9HyperLinkES3_ET0_T_S5_S4_ @2418
    _ZSt18uninitialized_copyIPPN11xlslib_core9worksheetES3_ET0_T_S5_S4_ @2419
    _ZSt18uninitialized_copyIPjS0_ET0_T_S2_S1_ @2420
    _ZSt19__iterator_categoryISt20_List_const_iteratorIPSsEENSt15iterator_traitsIT_E17iterator_categoryERKS4_ @2421
    _ZSt19__move_median_firstIN9__gnu_cxx17__normal_iteratorIPPN11xlslib_core8COlePropESt6vectorIS4_SaIS4_EEEEPFbPKS3_SB_EEvT_SE_SE_T0_ @2422
    _ZSt20uninitialized_fill_nIPN11xlslib_core10CUnitStoreEjS1_EvT_T0_RKT1_ @2423
    _ZSt20uninitialized_fill_nIPPN11xlslib_core5CUnitEjS2_EvT_T0_RKT1_ @2424
    _ZSt21__unguarded_partitionIN9__gnu_cxx17__normal_iteratorIPPN11xlslib_core8COlePropESt6vectorIS4_SaIS4_EEEES4_PFbPKS3_SB_EET_SE_SE_RKT0_T1_ @2425
    _ZSt22__copy_move_backward_aILb0EPN11xlslib_core10CUnitStoreES2_ET1_T0_S4_S3_ @2426
    _ZSt22__copy_move_backward_aILb0EPN11xlslib_core14rowblocksize_tES2_ET1_T0_S4_S3_ @2427
    _ZSt22__copy_move_backward_aILb0EPPKN11xlslib_core7label_tES4_ET1_T0_S6_S5_ @2428
    _ZSt22__copy_move_backward_aILb0EPPN11xlslib_core12boundsheet_tES3_ET1_T0_S5_S4_ @2429
    _ZSt22__copy_move_backward_aILb0EPPN11xlslib_core4xf_tES3_ET1_T0_S5_S4_ @2430
    _ZSt22__copy_move_backward_aILb0EPPN11xlslib_core5CUnitES3_ET1_T0_S5_S4_ @2431
    _ZSt22__copy_move_backward_aILb0EPPN11xlslib_core5rangeES3_ET1_T0_S5_S4_ @2432
    _ZSt22__copy_move_backward_aILb0EPPN11xlslib_core6font_tES3_ET1_T0_S5_S4_ @2433
    _ZSt22__copy_move_backward_aILb0EPPN11xlslib_core7range_tES3_ET1_T0_S5_S4_ @2434
    _ZSt22__copy_move_backward_aILb0EPPN11xlslib_core7style_tES3_ET1_T0_S5_S4_ @2435
    _ZSt22__copy_move_backward_aILb0EPPN11xlslib_core8COlePropES3_ET1_T0_S5_S4_ @2436
    _ZSt22__copy_move_backward_aILb0EPPN11xlslib_core8format_tES3_ET1_T0_S5_S4_ @2437
    _ZSt22__copy_move_backward_aILb0EPPN11xlslib_core9HyperLinkES3_ET1_T0_S5_S4_ @2438
    _ZSt22__copy_move_backward_aILb0EPPN11xlslib_core9worksheetES3_ET1_T0_S5_S4_ @2439
    _ZSt22__copy_move_backward_aILb0EPjS0_ET1_T0_S2_S1_ @2440
    _ZSt22__final_insertion_sortIN9__gnu_cxx17__normal_iteratorIPPN11xlslib_core8COlePropESt6vectorIS4_SaIS4_EEEEPFbPKS3_SB_EEvT_SE_T0_ @2441
    _ZSt22__uninitialized_copy_aIPN11xlslib_core10CUnitStoreES2_S1_ET0_T_S4_S3_RSaIT1_E @2442
    _ZSt22__uninitialized_copy_aIPN11xlslib_core14rowblocksize_tES2_S1_ET0_T_S4_S3_RSaIT1_E @2443
    _ZSt22__uninitialized_copy_aIPPKN11xlslib_core7label_tES4_S3_ET0_T_S6_S5_RSaIT1_E @2444
    _ZSt22__uninitialized_copy_aIPPN11xlslib_core12boundsheet_tES3_S2_ET0_T_S5_S4_RSaIT1_E @2445
    _ZSt22__uninitialized_copy_aIPPN11xlslib_core4xf_tES3_S2_ET0_T_S5_S4_RSaIT1_E @2446
    _ZSt22__uninitialized_copy_aIPPN11xlslib_core5CUnitES3_S2_ET0_T_S5_S4_RSaIT1_E @2447
    _ZSt22__uninitialized_copy_aIPPN11xlslib_core5rangeES3_S2_ET0_T_S5_S4_RSaIT1_E @2448
    _ZSt22__uninitialized_copy_aIPPN11xlslib_core6font_tES3_S2_ET0_T_S5_S4_RSaIT1_E @2449
    _ZSt22__uninitialized_copy_aIPPN11xlslib_core7range_tES3_S2_ET0_T_S5_S4_RSaIT1_E @2450
    _ZSt22__uninitialized_copy_aIPPN11xlslib_core7style_tES3_S2_ET0_T_S5_S4_RSaIT1_E @2451
    _ZSt22__uninitialized_copy_aIPPN11xlslib_core8COlePropES3_S2_ET0_T_S5_S4_RSaIT1_E @2452
    _ZSt22__uninitialized_copy_aIPPN11xlslib_core8format_tES3_S2_ET0_T_S5_S4_RSaIT1_E @2453
    _ZSt22__uninitialized_copy_aIPPN11xlslib_core9HyperLinkES3_S2_ET0_T_S5_S4_RSaIT1_E @2454
    _ZSt22__uninitialized_copy_aIPPN11xlslib_core9worksheetES3_S2_ET0_T_S5_S4_RSaIT1_E @2455
    _ZSt22__uninitialized_copy_aIPjS0_jET0_T_S2_S1_RSaIT1_E @2456
    _ZSt22__uninitialized_move_aIPN11xlslib_core10CUnitStoreES2_SaIS1_EET0_T_S5_S4_RT1_ @2457
    _ZSt22__uninitialized_move_aIPN11xlslib_core14rowblocksize_tES2_SaIS1_EET0_T_S5_S4_RT1_ @2458
    _ZSt22__uninitialized_move_aIPPKN11xlslib_core7label_tES4_SaIS3_EET0_T_S7_S6_RT1_ @2459
    _ZSt22__uninitialized_move_aIPPN11xlslib_core12boundsheet_tES3_SaIS2_EET0_T_S6_S5_RT1_ @2460
    _ZSt22__uninitialized_move_aIPPN11xlslib_core4xf_tES3_SaIS2_EET0_T_S6_S5_RT1_ @2461
    _ZSt22__uninitialized_move_aIPPN11xlslib_core5CUnitES3_SaIS2_EET0_T_S6_S5_RT1_ @2462
    _ZSt22__uninitialized_move_aIPPN11xlslib_core5rangeES3_SaIS2_EET0_T_S6_S5_RT1_ @2463
    _ZSt22__uninitialized_move_aIPPN11xlslib_core6font_tES3_SaIS2_EET0_T_S6_S5_RT1_ @2464
    _ZSt22__uninitialized_move_aIPPN11xlslib_core7range_tES3_SaIS2_EET0_T_S6_S5_RT1_ @2465
    _ZSt22__uninitialized_move_aIPPN11xlslib_core7style_tES3_SaIS2_EET0_T_S6_S5_RT1_ @2466
    _ZSt22__uninitialized_move_aIPPN11xlslib_core8COlePropES3_SaIS2_EET0_T_S6_S5_RT1_ @2467
    _ZSt22__uninitialized_move_aIPPN11xlslib_core8format_tES3_SaIS2_EET0_T_S6_S5_RT1_ @2468
    _ZSt22__uninitialized_move_aIPPN11xlslib_core9HyperLinkES3_SaIS2_EET0_T_S6_S5_RT1_ @2469
    _ZSt22__uninitialized_move_aIPPN11xlslib_core9worksheetES3_SaIS2_EET0_T_S6_S5_RT1_ @2470
    _ZSt22__uninitialized_move_aIPjS0_SaIjEET0_T_S3_S2_RT1_ @2471
    _ZSt23__copy_move_backward_a2ILb0EN9__gnu_cxx17__normal_iteratorIPPN11xlslib_core8COlePropESt6vectorIS4_SaIS4_EEEES9_ET1_T0_SB_SA_ @2472
    _ZSt23__copy_move_backward_a2ILb0EPN11xlslib_core10CUnitStoreES2_ET1_T0_S4_S3_ @2473
    _ZSt23__copy_move_backward_a2ILb0EPN11xlslib_core14rowblocksize_tES2_ET1_T0_S4_S3_ @2474
    _ZSt23__copy_move_backward_a2ILb0EPPKN11xlslib_core7label_tES4_ET1_T0_S6_S5_ @2475
    _ZSt23__copy_move_backward_a2ILb0EPPN11xlslib_core12boundsheet_tES3_ET1_T0_S5_S4_ @2476
    _ZSt23__copy_move_backward_a2ILb0EPPN11xlslib_core4xf_tES3_ET1_T0_S5_S4_ @2477
    _ZSt23__copy_move_backward_a2ILb0EPPN11xlslib_core5CUnitES3_ET1_T0_S5_S4_ @2478
    _ZSt23__copy_move_backward_a2ILb0EPPN11xlslib_core5rangeES3_ET1_T0_S5_S4_ @2479
    _ZSt23__copy_move_backward_a2ILb0EPPN11xlslib_core6font_tES3_ET1_T0_S5_S4_ @2480
    _ZSt23__copy_move_backward_a2ILb0EPPN11xlslib_core7range_tES3_ET1_T0_S5_S4_ @2481
    _ZSt23__copy_move_backward_a2ILb0EPPN11xlslib_core7style_tES3_ET1_T0_S5_S4_ @2482
    _ZSt23__copy_move_backward_a2ILb0EPPN11xlslib_core8COlePropES3_ET1_T0_S5_S4_ @2483
    _ZSt23__copy_move_backward_a2ILb0EPPN11xlslib_core8format_tES3_ET1_T0_S5_S4_ @2484
    _ZSt23__copy_move_backward_a2ILb0EPPN11xlslib_core9HyperLinkES3_ET1_T0_S5_S4_ @2485
    _ZSt23__copy_move_backward_a2ILb0EPPN11xlslib_core9worksheetES3_ET1_T0_S5_S4_ @2486
    _ZSt23__copy_move_backward_a2ILb0EPjS0_ET1_T0_S2_S1_ @2487
    _ZSt24__uninitialized_fill_n_aIPN11xlslib_core10CUnitStoreEjS1_S1_EvT_T0_RKT1_RSaIT2_E @2488
    _ZSt24__uninitialized_fill_n_aIPPN11xlslib_core5CUnitEjS2_S2_EvT_T0_RKT1_RSaIT2_E @2489
    _ZSt25__unguarded_linear_insertIN9__gnu_cxx17__normal_iteratorIPPN11xlslib_core8COlePropESt6vectorIS4_SaIS4_EEEEPFbPKS3_SB_EEvT_T0_ @2490
    _ZSt26__unguarded_insertion_sortIN9__gnu_cxx17__normal_iteratorIPPN11xlslib_core8COlePropESt6vectorIS4_SaIS4_EEEEPFbPKS3_SB_EEvT_SE_T0_ @2491
    _ZSt27__unguarded_partition_pivotIN9__gnu_cxx17__normal_iteratorIPPN11xlslib_core8COlePropESt6vectorIS4_SaIS4_EEEEPFbPKS3_SB_EET_SE_SE_T0_ @2492
    _ZSt3decRSt8ios_base @2493
    _ZSt3hexRSt8ios_base @2494
    _ZSt3maxIjERKT_S2_S2_ @2495
    _ZSt4__lgi @2496
    _ZSt4copyIN9__gnu_cxx17__normal_iteratorIPPKN11xlslib_core7label_tESt6vectorIS5_SaIS5_EEEESA_ET0_T_SC_SB_ @2497
    _ZSt4copyIPKtPtET0_T_S4_S3_ @2498
    _ZSt4copyIPPKN11xlslib_core7label_tES4_ET0_T_S6_S5_ @2499
    _ZSt4copyIPPN11xlslib_core12boundsheet_tES3_ET0_T_S5_S4_ @2500
    _ZSt4copyIPPN11xlslib_core4xf_tES3_ET0_T_S5_S4_ @2501
    _ZSt4copyIPPN11xlslib_core5CUnitES3_ET0_T_S5_S4_ @2502
    _ZSt4copyIPPN11xlslib_core5rangeES3_ET0_T_S5_S4_ @2503
    _ZSt4copyIPPN11xlslib_core6font_tES3_ET0_T_S5_S4_ @2504
    _ZSt4copyIPPN11xlslib_core7range_tES3_ET0_T_S5_S4_ @2505
    _ZSt4copyIPPN11xlslib_core7style_tES3_ET0_T_S5_S4_ @2506
    _ZSt4copyIPPN11xlslib_core8COlePropES3_ET0_T_S5_S4_ @2507
    _ZSt4copyIPPN11xlslib_core8format_tES3_ET0_T_S5_S4_ @2508
    _ZSt4copyIPPN11xlslib_core9HyperLinkES3_ET0_T_S5_S4_ @2509
    _ZSt4copyIPPN11xlslib_core9worksheetES3_ET0_T_S5_S4_ @2510
    _ZSt4copyIPjS0_ET0_T_S2_S1_ @2511
    _ZSt4fillIPN11xlslib_core10CUnitStoreES1_EvT_S3_RKT0_ @2512
    _ZSt4fillIPPN11xlslib_core5CUnitES2_EvT_S4_RKT0_ @2513
    _ZSt4sortIN9__gnu_cxx17__normal_iteratorIPPN11xlslib_core8COlePropESt6vectorIS4_SaIS4_EEEEPFbPKS3_SB_EEvT_SE_T0_ @2514
    _ZSt4swapIPN11xlslib_core8COlePropEEvRT_S4_ @2515
    _ZSt6fill_nIPPN11xlslib_core5CUnitEjS2_ET_S4_T0_RKT1_ @2516
    _ZSt8_DestroyIN11xlslib_core10CUnitStoreEEvPT_ @2517
    _ZSt8_DestroyIPN11xlslib_core10CUnitStoreEEvT_S3_ @2518
    _ZSt8_DestroyIPN11xlslib_core10CUnitStoreES1_EvT_S3_RSaIT0_E @2519
    _ZSt8_DestroyIPN11xlslib_core14rowblocksize_tEEvT_S3_ @2520
    _ZSt8_DestroyIPN11xlslib_core14rowblocksize_tES1_EvT_S3_RSaIT0_E @2521
    _ZSt8_DestroyIPPKN11xlslib_core7label_tEEvT_S5_ @2522
    _ZSt8_DestroyIPPKN11xlslib_core7label_tES3_EvT_S5_RSaIT0_E @2523
    _ZSt8_DestroyIPPN11xlslib_core12boundsheet_tEEvT_S4_ @2524
    _ZSt8_DestroyIPPN11xlslib_core12boundsheet_tES2_EvT_S4_RSaIT0_E @2525
    _ZSt8_DestroyIPPN11xlslib_core4xf_tEEvT_S4_ @2526
    _ZSt8_DestroyIPPN11xlslib_core4xf_tES2_EvT_S4_RSaIT0_E @2527
    _ZSt8_DestroyIPPN11xlslib_core5CUnitEEvT_S4_ @2528
    _ZSt8_DestroyIPPN11xlslib_core5CUnitES2_EvT_S4_RSaIT0_E @2529
    _ZSt8_DestroyIPPN11xlslib_core5rangeEEvT_S4_ @2530
    _ZSt8_DestroyIPPN11xlslib_core5rangeES2_EvT_S4_RSaIT0_E @2531
    _ZSt8_DestroyIPPN11xlslib_core6font_tEEvT_S4_ @2532
    _ZSt8_DestroyIPPN11xlslib_core6font_tES2_EvT_S4_RSaIT0_E @2533
    _ZSt8_DestroyIPPN11xlslib_core7range_tEEvT_S4_ @2534
    _ZSt8_DestroyIPPN11xlslib_core7range_tES2_EvT_S4_RSaIT0_E @2535
    _ZSt8_DestroyIPPN11xlslib_core7style_tEEvT_S4_ @2536
    _ZSt8_DestroyIPPN11xlslib_core7style_tES2_EvT_S4_RSaIT0_E @2537
    _ZSt8_DestroyIPPN11xlslib_core8COlePropEEvT_S4_ @2538
    _ZSt8_DestroyIPPN11xlslib_core8COlePropES2_EvT_S4_RSaIT0_E @2539
    _ZSt8_DestroyIPPN11xlslib_core8format_tEEvT_S4_ @2540
    _ZSt8_DestroyIPPN11xlslib_core8format_tES2_EvT_S4_RSaIT0_E @2541
    _ZSt8_DestroyIPPN11xlslib_core9HyperLinkEEvT_S4_ @2542
    _ZSt8_DestroyIPPN11xlslib_core9HyperLinkES2_EvT_S4_RSaIT0_E @2543
    _ZSt8_DestroyIPPN11xlslib_core9worksheetEEvT_S4_ @2544
    _ZSt8_DestroyIPPN11xlslib_core9worksheetES2_EvT_S4_RSaIT0_E @2545
    _ZSt8_DestroyIPjEvT_S1_ @2546
    _ZSt8_DestroyIPjjEvT_S1_RSaIT0_E @2547
    _ZSt8__fill_aIPN11xlslib_core10CUnitStoreES1_EN9__gnu_cxx11__enable_ifIXntsrSt11__is_scalarIT0_E7__valueEvE6__typeET_SA_RKS6_ @2548
    _ZSt8__fill_aIPPN11xlslib_core5CUnitES2_EN9__gnu_cxx11__enable_ifIXsrSt11__is_scalarIT0_E7__valueEvE6__typeET_SB_RKS7_ @2549
    _ZSt8distanceISt20_List_const_iteratorIPSsEENSt15iterator_traitsIT_E15difference_typeES4_S4_ @2550
    _ZSt9iter_swapIN9__gnu_cxx17__normal_iteratorIPPN11xlslib_core8COlePropESt6vectorIS4_SaIS4_EEEES9_EvT_T0_ @2551
    _ZSt9make_heapIN9__gnu_cxx17__normal_iteratorIPPN11xlslib_core8COlePropESt6vectorIS4_SaIS4_EEEEPFbPKS3_SB_EEvT_SE_T0_ @2552
    _ZSt9sort_heapIN9__gnu_cxx17__normal_iteratorIPPN11xlslib_core8COlePropESt6vectorIS4_SaIS4_EEEEPFbPKS3_SB_EEvT_SE_T0_ @2553
    _ZStaNRSt13_Ios_FmtflagsS_ @2554
    _ZStanSt13_Ios_FmtflagsS_ @2555
    _ZStcoSt13_Ios_Fmtflags @2556
    _ZSteqIcEN9__gnu_cxx11__enable_ifIXsrSt9__is_charIT_E7__valueEbE6__typeERKSbIS3_St11char_traitsIS3_ESaIS3_EESC_ @2557
    _ZSteqItEbRKSaIT_ES3_ @2558
    _ZStoRRSt13_Ios_FmtflagsS_ @2559
    _ZStorSt13_Ios_FmtflagsS_ @2560
    _ZStorSt13_Ios_OpenmodeS_ @2561
    _ZTIN11xlslib_core10CDimensionE @2562 DATA
    _ZTIN11xlslib_core10CExtFormatE @2563 DATA
    _ZTIN11xlslib_core10hpsf_doc_tE @2564 DATA
    _ZTIN11xlslib_core11rowheight_tE @2565 DATA
    _ZTIN11xlslib_core12CBiffSectionE @2566 DATA
    _ZTIN11xlslib_core12CDataStorageE @2567 DATA
    _ZTIN11xlslib_core12CMergedCellsE @2568 DATA
    _ZTIN11xlslib_core12CSummaryInfoE @2569 DATA
    _ZTIN11xlslib_core12boundsheet_tE @2570 DATA
    _ZTIN11xlslib_core14CGlobalRecordsE @2571 DATA
    _ZTIN11xlslib_core14COleFileSystemE @2572 DATA
    _ZTIN11xlslib_core15CDocSummaryInfoE @2573 DATA
    _ZTIN11xlslib_core15terminal_node_tE @2574 DATA
    _ZTIN11xlslib_core15unary_op_node_tE @2575 DATA
    _ZTIN11xlslib_core16binary_op_node_tE @2576 DATA
    _ZTIN11xlslib_core17cell_deref_node_tE @2577 DATA
    _ZTIN11xlslib_core17expression_node_tE @2578 DATA
    _ZTIN11xlslib_core17n_ary_func_node_tE @2579 DATA
    _ZTIN11xlslib_core17text_value_node_tE @2580 DATA
    _ZTIN11xlslib_core17unary_func_node_tE @2581 DATA
    _ZTIN11xlslib_core17z_ary_func_node_tE @2582 DATA
    _ZTIN11xlslib_core18binary_func_node_tE @2583 DATA
    _ZTIN11xlslib_core18error_value_node_tE @2584 DATA
    _ZTIN11xlslib_core18float_value_node_tE @2585 DATA
    _ZTIN11xlslib_core18missing_arg_node_tE @2586 DATA
    _ZTIN11xlslib_core19function_basenode_tE @2587 DATA
    _ZTIN11xlslib_core19operator_basenode_tE @2588 DATA
    _ZTIN11xlslib_core19userdef_func_node_tE @2589 DATA
    _ZTIN11xlslib_core20boolean_value_node_tE @2590 DATA
    _ZTIN11xlslib_core20integer_value_node_tE @2591 DATA
    _ZTIN11xlslib_core21cellarea_deref_node_tE @2592 DATA
    _ZTIN11xlslib_core25expression_node_factory_tE @2593 DATA
    _ZTIN11xlslib_core26estimated_formula_result_tE @2594 DATA
    _ZTIN11xlslib_core4CBofE @2595 DATA
    _ZTIN11xlslib_core4CEofE @2596 DATA
    _ZTIN11xlslib_core4CErrE @2597 DATA
    _ZTIN11xlslib_core4CRowE @2598 DATA
    _ZTIN11xlslib_core4xf_iE @2599 DATA
    _ZTIN11xlslib_core4xf_tE @2600 DATA
    _ZTIN11xlslib_core5CFontE @2601 DATA
    _ZTIN11xlslib_core5CNoteE @2602 DATA
    _ZTIN11xlslib_core5CUnitE @2603 DATA
    _ZTIN11xlslib_core5err_tE @2604 DATA
    _ZTIN11xlslib_core5rangeE @2605 DATA
    _ZTIN11xlslib_core6CBlankE @2606 DATA
    _ZTIN11xlslib_core6CIndexE @2607 DATA
    _ZTIN11xlslib_core6CLabelE @2608 DATA
    _ZTIN11xlslib_core6CStyleE @2609 DATA
    _ZTIN11xlslib_core6cell_tE @2610 DATA
    _ZTIN11xlslib_core6font_iE @2611 DATA
    _ZTIN11xlslib_core6font_tE @2612 DATA
    _ZTIN11xlslib_core6note_tE @2613 DATA
    _ZTIN11xlslib_core7CBSheetE @2614 DATA
    _ZTIN11xlslib_core7CDBCellE @2615 DATA
    _ZTIN11xlslib_core7CFormatE @2616 DATA
    _ZTIN11xlslib_core7CNumberE @2617 DATA
    _ZTIN11xlslib_core7COleDocE @2618 DATA
    _ZTIN11xlslib_core7CRecordE @2619 DATA
    _ZTIN11xlslib_core7blank_tE @2620 DATA
    _ZTIN11xlslib_core7label_tE @2621 DATA
    _ZTIN11xlslib_core7range_tE @2622 DATA
    _ZTIN11xlslib_core7window1E @2623 DATA
    _ZTIN11xlslib_core8CBinFileE @2624 DATA
    _ZTIN11xlslib_core8CBooleanE @2625 DATA
    _ZTIN11xlslib_core8CColInfoE @2626 DATA
    _ZTIN11xlslib_core8CFormulaE @2627 DATA
    _ZTIN11xlslib_core8CHPSFdocE @2628 DATA
    _ZTIN11xlslib_core8CPaletteE @2629 DATA
    _ZTIN11xlslib_core8CWindow1E @2630 DATA
    _ZTIN11xlslib_core8CWindow2E @2631 DATA
    _ZTIN11xlslib_core8format_tE @2632 DATA
    _ZTIN11xlslib_core8number_tE @2633 DATA
    _ZTIN11xlslib_core8workbookE @2634 DATA
    _ZTIN11xlslib_core9CCodePageE @2635 DATA
    _ZTIN11xlslib_core9CContinueE @2636 DATA
    _ZTIN11xlslib_core9CDateModeE @2637 DATA
    _ZTIN11xlslib_core9boolean_tE @2638 DATA
    _ZTIN11xlslib_core9formula_tE @2639 DATA
    _ZTIN11xlslib_core9worksheetE @2640 DATA
    _ZTISs @2641 DATA
    _ZTSN11xlslib_core10CDimensionE @2642 DATA
    _ZTSN11xlslib_core10CExtFormatE @2643 DATA
    _ZTSN11xlslib_core10hpsf_doc_tE @2644 DATA
    _ZTSN11xlslib_core11rowheight_tE @2645 DATA
    _ZTSN11xlslib_core12CBiffSectionE @2646 DATA
    _ZTSN11xlslib_core12CDataStorageE @2647 DATA
    _ZTSN11xlslib_core12CMergedCellsE @2648 DATA
    _ZTSN11xlslib_core12CSummaryInfoE @2649 DATA
    _ZTSN11xlslib_core12boundsheet_tE @2650 DATA
    _ZTSN11xlslib_core14CGlobalRecordsE @2651 DATA
    _ZTSN11xlslib_core14COleFileSystemE @2652 DATA
    _ZTSN11xlslib_core15CDocSummaryInfoE @2653 DATA
    _ZTSN11xlslib_core15terminal_node_tE @2654 DATA
    _ZTSN11xlslib_core15unary_op_node_tE @2655 DATA
    _ZTSN11xlslib_core16binary_op_node_tE @2656 DATA
    _ZTSN11xlslib_core17cell_deref_node_tE @2657 DATA
    _ZTSN11xlslib_core17expression_node_tE @2658 DATA
    _ZTSN11xlslib_core17n_ary_func_node_tE @2659 DATA
    _ZTSN11xlslib_core17text_value_node_tE @2660 DATA
    _ZTSN11xlslib_core17unary_func_node_tE @2661 DATA
    _ZTSN11xlslib_core17z_ary_func_node_tE @2662 DATA
    _ZTSN11xlslib_core18binary_func_node_tE @2663 DATA
    _ZTSN11xlslib_core18error_value_node_tE @2664 DATA
    _ZTSN11xlslib_core18float_value_node_tE @2665 DATA
    _ZTSN11xlslib_core18missing_arg_node_tE @2666 DATA
    _ZTSN11xlslib_core19function_basenode_tE @2667 DATA
    _ZTSN11xlslib_core19operator_basenode_tE @2668 DATA
    _ZTSN11xlslib_core19userdef_func_node_tE @2669 DATA
    _ZTSN11xlslib_core20boolean_value_node_tE @2670 DATA
    _ZTSN11xlslib_core20integer_value_node_tE @2671 DATA
    _ZTSN11xlslib_core21cellarea_deref_node_tE @2672 DATA
    _ZTSN11xlslib_core25expression_node_factory_tE @2673 DATA
    _ZTSN11xlslib_core26estimated_formula_result_tE @2674 DATA
    _ZTSN11xlslib_core4CBofE @2675 DATA
    _ZTSN11xlslib_core4CEofE @2676 DATA
    _ZTSN11xlslib_core4CErrE @2677 DATA
    _ZTSN11xlslib_core4CRowE @2678 DATA
    _ZTSN11xlslib_core4xf_iE @2679 DATA
    _ZTSN11xlslib_core4xf_tE @2680 DATA
    _ZTSN11xlslib_core5CFontE @2681 DATA
    _ZTSN11xlslib_core5CNoteE @2682 DATA
    _ZTSN11xlslib_core5CUnitE @2683 DATA
    _ZTSN11xlslib_core5err_tE @2684 DATA
    _ZTSN11xlslib_core5rangeE @2685 DATA
    _ZTSN11xlslib_core6CBlankE @2686 DATA
    _ZTSN11xlslib_core6CIndexE @2687 DATA
    _ZTSN11xlslib_core6CLabelE @2688 DATA
    _ZTSN11xlslib_core6CStyleE @2689 DATA
    _ZTSN11xlslib_core6cell_tE @2690 DATA
    _ZTSN11xlslib_core6font_iE @2691 DATA
    _ZTSN11xlslib_core6font_tE @2692 DATA
    _ZTSN11xlslib_core6note_tE @2693 DATA
    _ZTSN11xlslib_core7CBSheetE @2694 DATA
    _ZTSN11xlslib_core7CDBCellE @2695 DATA
    _ZTSN11xlslib_core7CFormatE @2696 DATA
    _ZTSN11xlslib_core7CNumberE @2697 DATA
    _ZTSN11xlslib_core7COleDocE @2698 DATA
    _ZTSN11xlslib_core7CRecordE @2699 DATA
    _ZTSN11xlslib_core7blank_tE @2700 DATA
    _ZTSN11xlslib_core7label_tE @2701 DATA
    _ZTSN11xlslib_core7range_tE @2702 DATA
    _ZTSN11xlslib_core7window1E @2703 DATA
    _ZTSN11xlslib_core8CBinFileE @2704 DATA
    _ZTSN11xlslib_core8CBooleanE @2705 DATA
    _ZTSN11xlslib_core8CColInfoE @2706 DATA
    _ZTSN11xlslib_core8CFormulaE @2707 DATA
    _ZTSN11xlslib_core8CHPSFdocE @2708 DATA
    _ZTSN11xlslib_core8CPaletteE @2709 DATA
    _ZTSN11xlslib_core8CWindow1E @2710 DATA
    _ZTSN11xlslib_core8CWindow2E @2711 DATA
    _ZTSN11xlslib_core8format_tE @2712 DATA
    _ZTSN11xlslib_core8number_tE @2713 DATA
    _ZTSN11xlslib_core8workbookE @2714 DATA
    _ZTSN11xlslib_core9CCodePageE @2715 DATA
    _ZTSN11xlslib_core9CContinueE @2716 DATA
    _ZTSN11xlslib_core9CDateModeE @2717 DATA
    _ZTSN11xlslib_core9boolean_tE @2718 DATA
    _ZTSN11xlslib_core9formula_tE @2719 DATA
    _ZTSN11xlslib_core9worksheetE @2720 DATA
    _ZTSSs @2721 DATA
    _ZTVN11xlslib_core10CDimensionE @2722 DATA
    _ZTVN11xlslib_core10CExtFormatE @2723 DATA
    _ZTVN11xlslib_core10hpsf_doc_tE @2724 DATA
    _ZTVN11xlslib_core11rowheight_tE @2725 DATA
    _ZTVN11xlslib_core12CBiffSectionE @2726 DATA
    _ZTVN11xlslib_core12CDataStorageE @2727 DATA
    _ZTVN11xlslib_core12CMergedCellsE @2728 DATA
    _ZTVN11xlslib_core12CSummaryInfoE @2729 DATA
    _ZTVN11xlslib_core12boundsheet_tE @2730 DATA
    _ZTVN11xlslib_core14CGlobalRecordsE @2731 DATA
    _ZTVN11xlslib_core14COleFileSystemE @2732 DATA
    _ZTVN11xlslib_core15CDocSummaryInfoE @2733 DATA
    _ZTVN11xlslib_core15terminal_node_tE @2734 DATA
    _ZTVN11xlslib_core15unary_op_node_tE @2735 DATA
    _ZTVN11xlslib_core16binary_op_node_tE @2736 DATA
    _ZTVN11xlslib_core17cell_deref_node_tE @2737 DATA
    _ZTVN11xlslib_core17expression_node_tE @2738 DATA
    _ZTVN11xlslib_core17n_ary_func_node_tE @2739 DATA
    _ZTVN11xlslib_core17text_value_node_tE @2740 DATA
    _ZTVN11xlslib_core17unary_func_node_tE @2741 DATA
    _ZTVN11xlslib_core17z_ary_func_node_tE @2742 DATA
    _ZTVN11xlslib_core18binary_func_node_tE @2743 DATA
    _ZTVN11xlslib_core18error_value_node_tE @2744 DATA
    _ZTVN11xlslib_core18float_value_node_tE @2745 DATA
    _ZTVN11xlslib_core18missing_arg_node_tE @2746 DATA
    _ZTVN11xlslib_core19function_basenode_tE @2747 DATA
    _ZTVN11xlslib_core19operator_basenode_tE @2748 DATA
    _ZTVN11xlslib_core19userdef_func_node_tE @2749 DATA
    _ZTVN11xlslib_core20boolean_value_node_tE @2750 DATA
    _ZTVN11xlslib_core20integer_value_node_tE @2751 DATA
    _ZTVN11xlslib_core21cellarea_deref_node_tE @2752 DATA
    _ZTVN11xlslib_core25expression_node_factory_tE @2753 DATA
    _ZTVN11xlslib_core26estimated_formula_result_tE @2754 DATA
    _ZTVN11xlslib_core4CBofE @2755 DATA
    _ZTVN11xlslib_core4CEofE @2756 DATA
    _ZTVN11xlslib_core4CErrE @2757 DATA
    _ZTVN11xlslib_core4CRowE @2758 DATA
    _ZTVN11xlslib_core4xf_iE @2759 DATA
    _ZTVN11xlslib_core4xf_tE @2760 DATA
    _ZTVN11xlslib_core5CFontE @2761 DATA
    _ZTVN11xlslib_core5CNoteE @2762 DATA
    _ZTVN11xlslib_core5CUnitE @2763 DATA
    _ZTVN11xlslib_core5err_tE @2764 DATA
    _ZTVN11xlslib_core5rangeE @2765 DATA
    _ZTVN11xlslib_core6CBlankE @2766 DATA
    _ZTVN11xlslib_core6CIndexE @2767 DATA
    _ZTVN11xlslib_core6CLabelE @2768 DATA
    _ZTVN11xlslib_core6CStyleE @2769 DATA
    _ZTVN11xlslib_core6cell_tE @2770 DATA
    _ZTVN11xlslib_core6font_iE @2771 DATA
    _ZTVN11xlslib_core6font_tE @2772 DATA
    _ZTVN11xlslib_core6note_tE @2773 DATA
    _ZTVN11xlslib_core7CBSheetE @2774 DATA
    _ZTVN11xlslib_core7CDBCellE @2775 DATA
    _ZTVN11xlslib_core7CFormatE @2776 DATA
    _ZTVN11xlslib_core7CNumberE @2777 DATA
    _ZTVN11xlslib_core7COleDocE @2778 DATA
    _ZTVN11xlslib_core7CRecordE @2779 DATA
    _ZTVN11xlslib_core7blank_tE @2780 DATA
    _ZTVN11xlslib_core7label_tE @2781 DATA
    _ZTVN11xlslib_core7range_tE @2782 DATA
    _ZTVN11xlslib_core7window1E @2783 DATA
    _ZTVN11xlslib_core8CBinFileE @2784 DATA
    _ZTVN11xlslib_core8CBooleanE @2785 DATA
    _ZTVN11xlslib_core8CColInfoE @2786 DATA
    _ZTVN11xlslib_core8CFormulaE @2787 DATA
    _ZTVN11xlslib_core8CHPSFdocE @2788 DATA
    _ZTVN11xlslib_core8CPaletteE @2789 DATA
    _ZTVN11xlslib_core8CWindow1E @2790 DATA
    _ZTVN11xlslib_core8CWindow2E @2791 DATA
    _ZTVN11xlslib_core8format_tE @2792 DATA
    _ZTVN11xlslib_core8number_tE @2793 DATA
    _ZTVN11xlslib_core8workbookE @2794 DATA
    _ZTVN11xlslib_core9CCodePageE @2795 DATA
    _ZTVN11xlslib_core9CContinueE @2796 DATA
    _ZTVN11xlslib_core9CDateModeE @2797 DATA
    _ZTVN11xlslib_core9boolean_tE @2798 DATA
    _ZTVN11xlslib_core9formula_tE @2799 DATA
    _ZTVN11xlslib_core9worksheetE @2800 DATA
    _ZThn252_N11xlslib_core7COleDocD0Ev @2801
    _ZThn252_N11xlslib_core7COleDocD1Ev @2802
    _ZThn4_N11xlslib_core5range10fontheightEt @2803
    _ZThn4_N11xlslib_core5range10fontitalicEb @2804
    _ZThn4_N11xlslib_core5range10fontscriptENS_15script_option_tE @2805
    _ZThn4_N11xlslib_core5range10fontshadowEb @2806
    _ZThn4_N11xlslib_core5range11fontoutlineEb @2807
    _ZThn4_N11xlslib_core5range13fontstrikeoutEb @2808
    _ZThn4_N11xlslib_core5range13fontunderlineENS_18underline_option_tE @2809
    _ZThn4_N11xlslib_core5range8fontboldENS_17boldness_option_tE @2810
    _ZThn4_N11xlslib_core5range8fontnameERKSs @2811
    _ZThn4_N11xlslib_core5range9fontcolorENS_12color_name_tE @2812
    _ZThn4_N11xlslib_core5range9fontcolorEh @2813
    _ZThn4_N11xlslib_core5rangeD0Ev @2814
    _ZThn4_N11xlslib_core5rangeD1Ev @2815
    _ZThn8_N11xlslib_core5rangeD0Ev @2816
    _ZThn8_N11xlslib_core5rangeD1Ev @2817
    _ZlsIA10_cEN7Private27return_from_write_to_streamIT_E11return_typeERK10str_streamRKS3_ @2818
    _ZlsIA19_cEN7Private27return_from_write_to_streamIT_E11return_typeERK10str_streamRKS3_ @2819
    _ZlsIA2_cEN7Private27return_from_write_to_streamIT_E11return_typeERK10str_streamRKS3_ @2820
    _ZlsIA31_cEN7Private27return_from_write_to_streamIT_E11return_typeERK10str_streamRKS3_ @2821
    _ZlsIA3_cEN7Private27return_from_write_to_streamIT_E11return_typeERK10str_streamRKS3_ @2822
    _ZlsIA5_cEN7Private27return_from_write_to_streamIT_E11return_typeERK10str_streamRKS3_ @2823
    _ZlsIPKcEN7Private27return_from_write_to_streamIT_E11return_typeERK10str_streamRKS4_ @2824
    _ZlsIiEN7Private27return_from_write_to_streamIT_E11return_typeERK10str_streamRKS2_ @2825
    _ZnwjPv @2826
    xlsCellBordercolor @2827
    xlsCellBordercolorIdx @2828
    xlsCellBorderstyle @2829
    xlsCellFillbgcolor @2830
    xlsCellFillfgcolor @2831
    xlsCellFillstyle @2832
    xlsCellFont @2833
    xlsCellFontbold @2834
    xlsCellFontcolor @2835
    xlsCellFontheight @2836
    xlsCellFontitalic @2837
    xlsCellFontname @2838
    xlsCellFontoutline @2839
    xlsCellFontscript @2840
    xlsCellFontshadow @2841
    xlsCellFontstrikeout @2842
    xlsCellFontunderline @2843
    xlsCellFormat @2844
    xlsCellFormatP @2845
    xlsCellGetCol @2846
    xlsCellGetRow @2847
    xlsCellGetXFIndex @2848
    xlsCellHalign @2849
    xlsCellHidden @2850
    xlsCellLocked @2851
    xlsCellOrientation @2852
    xlsCellSetXF @2853
    xlsCellValign @2854
    xlsCellWrap @2855
    xlsDeleteWorkbook @2856
    xlsFontGetAttributes @2857
    xlsFontGetBoldStyle @2858
    xlsFontGetColorIdx @2859
    xlsFontGetHeight @2860
    xlsFontGetName @2861
    xlsFontGetScriptStyle @2862
    xlsFontGetUnderlineStyle @2863
    xlsFontSetBoldStyle @2864
    xlsFontSetColor @2865
    xlsFontSetHeight @2866
    xlsFontSetItalic @2867
    xlsFontSetName @2868
    xlsFontSetOutline @2869
    xlsFontSetScriptStyle @2870
    xlsFontSetShadow @2871
    xlsFontSetStrikeout @2872
    xlsFontSetUnderlineStyle @2873
    xlsNewWorkbook @2874
    xlsRangeCellcolor @2875
    xlsWorkBookFirstTab @2876
    xlsWorkBookTabBarWidth @2877
    xlsWorkBookWindPosition @2878
    xlsWorkBookWindSize @2879
    xlsWorkbookDump @2880
    xlsWorkbookFont @2881
    xlsWorkbookFormat @2882
    xlsWorkbookFormatW @2883
    xlsWorkbookGetSheet @2884
    xlsWorkbookProperty @2885
    xlsWorkbookSheet @2886
    xlsWorkbookSheetW @2887
    xlsWorkbookxFormat @2888
    xlsWorkbookxFormatFont @2889
    xlsWorksheetBlank @2890
    xlsWorksheetBoolean @2891
    xlsWorksheetColwidth @2892
    xlsWorksheetError @2893
    xlsWorksheetFindCell @2894
    xlsWorksheetHyperLink @2895
    xlsWorksheetHyperLinkW @2896
    xlsWorksheetLabel @2897
    xlsWorksheetLabelW @2898
    xlsWorksheetMakeActive @2899
    xlsWorksheetMerge @2900
    xlsWorksheetNote @2901
    xlsWorksheetNoteW @2902
    xlsWorksheetNumberDbl @2903
    xlsWorksheetNumberInt @2904
    xlsWorksheetRangegroup @2905
    xlsWorksheetRowheight @2906
    xlsXformatGetBorderColorIdx @2907
    xlsXformatGetBorderStyle @2908
    xlsXformatGetFillBGColorIdx @2909
    xlsXformatGetFillFGColorIdx @2910
    xlsXformatGetFillStyle @2911
    xlsXformatGetFont @2912
    xlsXformatGetFontIndex @2913
    xlsXformatGetFormat @2914
    xlsXformatGetFormatIndex @2915
    xlsXformatGetHAlign @2916
    xlsXformatGetTxtOrientation @2917
    xlsXformatGetVAlign @2918
    xlsXformatIsCell @2919
    xlsXformatIsHidden @2920
    xlsXformatIsLocked @2921
    xlsXformatIsWrap @2922
    xlsXformatSetBorderColor @2923
    xlsXformatSetBorderColorIdx @2924
    xlsXformatSetBorderStyle @2925
    xlsXformatSetCellMode @2926
    xlsXformatSetFillBGColor @2927
    xlsXformatSetFillFGColor @2928
    xlsXformatSetFillStyle @2929
    xlsXformatSetFont @2930
    xlsXformatSetFormat @2931
    xlsXformatSetFormatP @2932
    xlsXformatSetHAlign @2933
    xlsXformatSetHidden @2934
    xlsXformatSetLocked @2935
    xlsXformatSetTxtOrientation @2936
    xlsXformatSetVAlign @2937
    xlsXformatSetWrap @2938
    xlslib_register_assert_reporter @2939
    xlslib_report_failed_assertion @2940
